Component: ARM Compiler 5.06 update 4 (build 422) Tool: armlink [4d35d2]

==============================================================================

Section Cross References

    main.o(i.main) refers to misc.o(i.NVIC_PriorityGroupConfig) for NVIC_PriorityGroupConfig
    main.o(i.main) refers to delay.o(i.delay_init) for delay_init
    main.o(i.main) refers to exti.o(i.exti_init) for exti_init
    main.o(i.main) refers to led.o(i.led_init) for led_init
    main.o(i.main) refers to dma.o(i.dma_config) for dma_config
    main.o(i.main) refers to adc.o(i.adc1_init) for adc1_init
    main.o(i.main) refers to adc.o(i.adc_dma_start) for adc_dma_start
    main.o(i.main) refers to timer.o(i.TIM3_Config_Init) for TIM3_Config_Init
    main.o(i.main) refers to si24r1.o(i.si24r1_spi_init) for si24r1_spi_init
    main.o(i.main) refers to oled.o(i.oled_spi_init) for oled_spi_init
    main.o(i.main) refers to oled.o(i.oled_ssd1351_init) for oled_ssd1351_init
    main.o(i.main) refers to si24r1.o(i.si24r1_detect) for si24r1_detect
    main.o(i.main) refers to oled.o(i.oled_show_string) for oled_show_string
    main.o(i.main) refers to oled.o(i.oled_refresh) for oled_refresh
    main.o(i.main) refers to si24r1.o(i.si24r1_TX_mode) for si24r1_TX_mode
    main.o(i.main) refers to oled_mathpaint.o(i.oled_draw_line) for oled_draw_line
    main.o(i.main) refers to ffltui.o(.text) for __aeabi_ui2f
    main.o(i.main) refers to fmul.o(.text) for __aeabi_fmul
    main.o(i.main) refers to adc.o(i.Lithium_Battery_percent) for Lithium_Battery_percent
    main.o(i.main) refers to oled.o(i.oled_show_num_hide0) for oled_show_num_hide0
    main.o(i.main) refers to oled.o(i.oled_show_Bin_Array) for oled_show_Bin_Array
    main.o(i.main) refers to oled.o(i.oled_clear) for oled_clear
    main.o(i.main) refers to si24r1.o(i.si24r1_TX_packet) for si24r1_TX_packet
    main.o(i.main) refers to fflti.o(.text) for __aeabi_i2f
    main.o(i.main) refers to fdiv.o(.text) for __aeabi_fdiv
    main.o(i.main) refers to oled.o(i.oled_show_float) for oled_show_float
    main.o(i.main) refers to f2d.o(.text) for __aeabi_f2d
    main.o(i.main) refers to dadd.o(.text) for __aeabi_dadd
    main.o(i.main) refers to d2f.o(.text) for __aeabi_d2f
    main.o(i.main) refers to main.o(.bss) for ADC_Mem
    main.o(i.main) refers to main.o(.data) for RF_detected
    main.o(i.main) refers to oled.o(.constdata) for icon_drone
    main.o(i.main) refers to delay.o(i.delay_ms) for delay_ms
    main.o(i.main) refers to stm32f10x_gpio.o(i.GPIO_ReadInputDataBit) for GPIO_ReadInputDataBit
    main.o(i.main) refers to ff.o(i.f_mount) for f_mount
    main.o(i.main) refers to oled.o(i.oled_buffer_clear) for oled_buffer_clear
    main.o(i.main) refers to oled_mathpaint.o(i.oled_draw_rectangle) for oled_draw_rectangle
    main.o(i.main) refers to extfunc.o(i.ef_display_SDcapcity) for ef_display_SDcapcity
    main.o(i.main) refers to extfunc.o(i.ef_FileList_iteration) for ef_FileList_iteration
    main.o(i.main) refers to hw_config.o(i.USB_Port_Set) for USB_Port_Set
    main.o(i.main) refers to hw_config.o(i.USB_Interrupts_Config) for USB_Interrupts_Config
    main.o(i.main) refers to hw_config.o(i.Set_USBClock) for Set_USBClock
    main.o(i.main) refers to usb_init.o(i.USB_Init) for USB_Init
    main.o(i.main) refers to extfunc.o(.bss) for fs
    main.o(i.main) refers to extfunc.o(.data) for f_res
    main.o(i.main) refers to hw_config.o(i.Joystick_Send) for Joystick_Send
    main.o(i.main) refers to usb_pwr.o(.data) for bDeviceState
    main.o(i.main) refers to hw_config.o(.data) for PrevXferComplete
    system_stm32f10x.o(i.SetSysClock) refers to system_stm32f10x.o(i.SetSysClockTo72) for SetSysClockTo72
    system_stm32f10x.o(i.SystemCoreClockUpdate) refers to system_stm32f10x.o(.data) for SystemCoreClock
    system_stm32f10x.o(i.SystemInit) refers to system_stm32f10x.o(i.SetSysClock) for SetSysClock
    irqhandler.o(i.DMAChannel3_IRQHandler) refers to stm32f10x_dma.o(i.DMA_ClearITPendingBit) for DMA_ClearITPendingBit
    irqhandler.o(i.DMAChannel3_IRQHandler) refers to stm32f10x_dma.o(i.DMA_ITConfig) for DMA_ITConfig
    irqhandler.o(i.DMAChannel3_IRQHandler) refers to stm32f10x_dma.o(i.DMA_Cmd) for DMA_Cmd
    irqhandler.o(i.DMAChannel3_IRQHandler) refers to stm32f10x_spi.o(i.SPI_I2S_DMACmd) for SPI_I2S_DMACmd
    irqhandler.o(i.EXTI15_10_IRQHandler) refers to stm32f10x_exti.o(i.EXTI_GetITStatus) for EXTI_GetITStatus
    irqhandler.o(i.EXTI15_10_IRQHandler) refers to delay.o(i.delay_ms) for delay_ms
    irqhandler.o(i.EXTI15_10_IRQHandler) refers to stm32f10x_gpio.o(i.GPIO_ReadInputDataBit) for GPIO_ReadInputDataBit
    irqhandler.o(i.EXTI15_10_IRQHandler) refers to stm32f10x_exti.o(i.EXTI_ClearITPendingBit) for EXTI_ClearITPendingBit
    irqhandler.o(i.EXTI15_10_IRQHandler) refers to main.o(.data) for right_key_value
    irqhandler.o(i.EXTI3_IRQHandler) refers to stm32f10x_exti.o(i.EXTI_GetITStatus) for EXTI_GetITStatus
    irqhandler.o(i.EXTI3_IRQHandler) refers to delay.o(i.delay_ms) for delay_ms
    irqhandler.o(i.EXTI3_IRQHandler) refers to stm32f10x_gpio.o(i.GPIO_ReadInputDataBit) for GPIO_ReadInputDataBit
    irqhandler.o(i.EXTI3_IRQHandler) refers to stm32f10x_exti.o(i.EXTI_ClearITPendingBit) for EXTI_ClearITPendingBit
    irqhandler.o(i.EXTI3_IRQHandler) refers to main.o(.data) for user1_key_value
    irqhandler.o(i.EXTI9_5_IRQHandler) refers to stm32f10x_exti.o(i.EXTI_GetITStatus) for EXTI_GetITStatus
    irqhandler.o(i.EXTI9_5_IRQHandler) refers to delay.o(i.delay_ms) for delay_ms
    irqhandler.o(i.EXTI9_5_IRQHandler) refers to stm32f10x_gpio.o(i.GPIO_ReadInputDataBit) for GPIO_ReadInputDataBit
    irqhandler.o(i.EXTI9_5_IRQHandler) refers to stm32f10x_exti.o(i.EXTI_ClearITPendingBit) for EXTI_ClearITPendingBit
    irqhandler.o(i.EXTI9_5_IRQHandler) refers to main.o(.data) for left_key_value
    irqhandler.o(i.SDIO_IRQHandler) refers to sdio_sdcard.o(i.SD_ProcessIRQSrc) for SD_ProcessIRQSrc
    irqhandler.o(i.TIM3_IRQHandler) refers to stm32f10x_tim.o(i.TIM_GetITStatus) for TIM_GetITStatus
    irqhandler.o(i.TIM3_IRQHandler) refers to stm32f10x_tim.o(i.TIM_ClearITPendingBit) for TIM_ClearITPendingBit
    irqhandler.o(i.TIM3_IRQHandler) refers to irqhandler.o(.data) for ms50
    irqhandler.o(i.TIM3_IRQHandler) refers to main.o(.data) for Trig_NRF_TX
    irqhandler.o(i.USBWakeUp_IRQHandler) refers to stm32f10x_exti.o(i.EXTI_ClearITPendingBit) for EXTI_ClearITPendingBit
    irqhandler.o(i.USB_LP_CAN1_RX0_IRQHandler) refers to usb_istr.o(i.USB_Istr) for USB_Istr
    adc.o(i.Lithium_Battery_percent) refers to f2d.o(.text) for __aeabi_f2d
    adc.o(i.Lithium_Battery_percent) refers to cdcmple.o(.text) for __aeabi_cdcmple
    adc.o(i.Lithium_Battery_percent) refers to dadd.o(.text) for __aeabi_dsub
    adc.o(i.Lithium_Battery_percent) refers to dmul.o(.text) for __aeabi_dmul
    adc.o(i.Lithium_Battery_percent) refers to dfixui.o(.text) for __aeabi_d2uiz
    adc.o(i.adc1_init) refers to stm32f10x_rcc.o(i.RCC_APB2PeriphClockCmd) for RCC_APB2PeriphClockCmd
    adc.o(i.adc1_init) refers to stm32f10x_rcc.o(i.RCC_ADCCLKConfig) for RCC_ADCCLKConfig
    adc.o(i.adc1_init) refers to stm32f10x_gpio.o(i.GPIO_Init) for GPIO_Init
    adc.o(i.adc1_init) refers to stm32f10x_adc.o(i.ADC_DeInit) for ADC_DeInit
    adc.o(i.adc1_init) refers to stm32f10x_adc.o(i.ADC_Init) for ADC_Init
    adc.o(i.adc1_init) refers to stm32f10x_adc.o(i.ADC_RegularChannelConfig) for ADC_RegularChannelConfig
    adc.o(i.adc1_init) refers to stm32f10x_adc.o(i.ADC_DMACmd) for ADC_DMACmd
    adc.o(i.adc1_init) refers to stm32f10x_adc.o(i.ADC_Cmd) for ADC_Cmd
    adc.o(i.adc1_init) refers to stm32f10x_adc.o(i.ADC_ResetCalibration) for ADC_ResetCalibration
    adc.o(i.adc1_init) refers to stm32f10x_adc.o(i.ADC_GetResetCalibrationStatus) for ADC_GetResetCalibrationStatus
    adc.o(i.adc1_init) refers to stm32f10x_adc.o(i.ADC_StartCalibration) for ADC_StartCalibration
    adc.o(i.adc1_init) refers to stm32f10x_adc.o(i.ADC_GetCalibrationStatus) for ADC_GetCalibrationStatus
    adc.o(i.adc_dma_start) refers to stm32f10x_adc.o(i.ADC_SoftwareStartConvCmd) for ADC_SoftwareStartConvCmd
    adc.o(i.adc_dma_start) refers to stm32f10x_dma.o(i.DMA_Cmd) for DMA_Cmd
    key.o(i.key_init) refers to stm32f10x_rcc.o(i.RCC_APB2PeriphClockCmd) for RCC_APB2PeriphClockCmd
    key.o(i.key_init) refers to stm32f10x_gpio.o(i.GPIO_Init) for GPIO_Init
    key.o(i.key_scan) refers to stm32f10x_gpio.o(i.GPIO_ReadInputDataBit) for GPIO_ReadInputDataBit
    key.o(i.key_scan) refers to delay.o(i.delay_ms) for delay_ms
    key.o(i.key_scan) refers to key.o(.data) for key_up
    led.o(i.led_init) refers to stm32f10x_rcc.o(i.RCC_APB2PeriphClockCmd) for RCC_APB2PeriphClockCmd
    led.o(i.led_init) refers to stm32f10x_gpio.o(i.GPIO_Init) for GPIO_Init
    led.o(i.led_init) refers to stm32f10x_gpio.o(i.GPIO_SetBits) for GPIO_SetBits
    exti.o(i.exti_init) refers to stm32f10x_rcc.o(i.RCC_APB2PeriphClockCmd) for RCC_APB2PeriphClockCmd
    exti.o(i.exti_init) refers to key.o(i.key_init) for key_init
    exti.o(i.exti_init) refers to stm32f10x_gpio.o(i.GPIO_EXTILineConfig) for GPIO_EXTILineConfig
    exti.o(i.exti_init) refers to stm32f10x_exti.o(i.EXTI_Init) for EXTI_Init
    exti.o(i.exti_init) refers to misc.o(i.NVIC_Init) for NVIC_Init
    dma.o(i.dma_config) refers to stm32f10x_rcc.o(i.RCC_AHBPeriphClockCmd) for RCC_AHBPeriphClockCmd
    dma.o(i.dma_config) refers to stm32f10x_dma.o(i.DMA_DeInit) for DMA_DeInit
    dma.o(i.dma_config) refers to stm32f10x_dma.o(i.DMA_Init) for DMA_Init
    dma.o(i.dma_config) refers to dma.o(.bss) for DMA_InitStructure
    dma.o(i.dma_enable) refers to stm32f10x_dma.o(i.DMA_Cmd) for DMA_Cmd
    spi.o(i.SPI1_Init) refers to stm32f10x_rcc.o(i.RCC_APB2PeriphClockCmd) for RCC_APB2PeriphClockCmd
    spi.o(i.SPI1_Init) refers to stm32f10x_gpio.o(i.GPIO_Init) for GPIO_Init
    spi.o(i.SPI1_Init) refers to stm32f10x_gpio.o(i.GPIO_ResetBits) for GPIO_ResetBits
    spi.o(i.SPI1_Init) refers to stm32f10x_spi.o(i.SPI_Init) for SPI_Init
    spi.o(i.SPI1_Init) refers to stm32f10x_spi.o(i.SPI_Cmd) for SPI_Cmd
    spi.o(i.SPI1_Init) refers to spi.o(.bss) for SPI_InitStructure
    spi.o(i.SPI1_ReadWriteByte) refers to stm32f10x_spi.o(i.SPI_I2S_GetFlagStatus) for SPI_I2S_GetFlagStatus
    spi.o(i.SPI1_ReadWriteByte) refers to stm32f10x_spi.o(i.SPI_I2S_SendData) for SPI_I2S_SendData
    spi.o(i.SPI1_ReadWriteByte) refers to stm32f10x_spi.o(i.SPI_I2S_ReceiveData) for SPI_I2S_ReceiveData
    spi.o(i.SPI1_SetSpeed) refers to stm32f10x_spi.o(i.SPI_Init) for SPI_Init
    spi.o(i.SPI1_SetSpeed) refers to stm32f10x_spi.o(i.SPI_Cmd) for SPI_Cmd
    spi.o(i.SPI1_SetSpeed) refers to spi.o(.bss) for SPI_InitStructure
    spi.o(i.SPI2_Init) refers to stm32f10x_rcc.o(i.RCC_APB2PeriphClockCmd) for RCC_APB2PeriphClockCmd
    spi.o(i.SPI2_Init) refers to stm32f10x_rcc.o(i.RCC_APB1PeriphClockCmd) for RCC_APB1PeriphClockCmd
    spi.o(i.SPI2_Init) refers to stm32f10x_gpio.o(i.GPIO_Init) for GPIO_Init
    spi.o(i.SPI2_Init) refers to stm32f10x_gpio.o(i.GPIO_ResetBits) for GPIO_ResetBits
    spi.o(i.SPI2_Init) refers to stm32f10x_spi.o(i.SPI_Init) for SPI_Init
    spi.o(i.SPI2_Init) refers to stm32f10x_spi.o(i.SPI_Cmd) for SPI_Cmd
    spi.o(i.SPI2_Init) refers to spi.o(.bss) for SPI_InitStructure
    spi.o(i.SPI2_ReadWriteByte) refers to stm32f10x_spi.o(i.SPI_I2S_GetFlagStatus) for SPI_I2S_GetFlagStatus
    spi.o(i.SPI2_ReadWriteByte) refers to stm32f10x_spi.o(i.SPI_I2S_SendData) for SPI_I2S_SendData
    spi.o(i.SPI2_ReadWriteByte) refers to stm32f10x_spi.o(i.SPI_I2S_ReceiveData) for SPI_I2S_ReceiveData
    oled.o(i.oled_buffer_clear) refers to oled.o(.bss) for Frame_Buffer
    oled.o(i.oled_clear) refers to oled.o(i.oled_buffer_clear) for oled_buffer_clear
    oled.o(i.oled_clear) refers to oled.o(i.oled_refresh) for oled_refresh
    oled.o(i.oled_display_off) refers to oled.o(i.oled_write_Byte) for oled_write_Byte
    oled.o(i.oled_display_on) refers to oled.o(i.oled_write_Byte) for oled_write_Byte
    oled.o(i.oled_draw_point) refers to oled.o(.bss) for Frame_Buffer
    oled.o(i.oled_refresh) refers to oled.o(i.oled_write_Byte) for oled_write_Byte
    oled.o(i.oled_refresh) refers to oled.o(.bss) for Frame_Buffer
    oled.o(i.oled_show_Bin_Array) refers to oled.o(.bss) for Frame_Buffer
    oled.o(i.oled_show_ColorImage) refers to oled.o(.bss) for Frame_Buffer
    oled.o(i.oled_show_GBK) refers to memseta.o(.text) for __aeabi_memclr4
    oled.o(i.oled_show_GBK) refers to extfunc.o(i.ef_SD_GetGbkMatrix) for ef_SD_GetGbkMatrix
    oled.o(i.oled_show_GBK) refers to oled.o(i.oled_draw_point) for oled_draw_point
    oled.o(i.oled_show_Icon) refers to oled.o(i.oled_draw_point) for oled_draw_point
    oled.o(i.oled_show_Icon) refers to oled.o(.constdata) for icon_drone
    oled.o(i.oled_show_char) refers to oled.o(i.oled_draw_point) for oled_draw_point
    oled.o(i.oled_show_char) refers to oled.o(.constdata) for ascii_0806
    oled.o(i.oled_show_float) refers to cfcmple.o(.text) for __aeabi_cfcmple
    oled.o(i.oled_show_float) refers to oled.o(i.oled_show_char) for oled_show_char
    oled.o(i.oled_show_float) refers to f2d.o(.text) for __aeabi_f2d
    oled.o(i.oled_show_float) refers to d2f.o(.text) for __aeabi_d2f
    oled.o(i.oled_show_float) refers to ffixui.o(.text) for __aeabi_f2uiz
    oled.o(i.oled_show_float) refers to oled.o(i.oled_show_num_hide0) for oled_show_num_hide0
    oled.o(i.oled_show_float) refers to ffltui.o(.text) for __aeabi_ui2f
    oled.o(i.oled_show_float) refers to fmul.o(.text) for __aeabi_fmul
    oled.o(i.oled_show_float) refers to oled.o(i.oled_show_num_every0) for oled_show_num_every0
    oled.o(i.oled_show_num_every0) refers to oled.o(i.mypow) for mypow
    oled.o(i.oled_show_num_every0) refers to oled.o(i.oled_show_char) for oled_show_char
    oled.o(i.oled_show_num_hide0) refers to oled.o(i.mypow) for mypow
    oled.o(i.oled_show_num_hide0) refers to oled.o(i.oled_show_char) for oled_show_char
    oled.o(i.oled_show_string) refers to oled.o(i.oled_show_GBK) for oled_show_GBK
    oled.o(i.oled_show_string) refers to oled.o(i.oled_show_char) for oled_show_char
    oled.o(i.oled_spi_init) refers to stm32f10x_rcc.o(i.RCC_APB2PeriphClockCmd) for RCC_APB2PeriphClockCmd
    oled.o(i.oled_spi_init) refers to stm32f10x_gpio.o(i.GPIO_Init) for GPIO_Init
    oled.o(i.oled_spi_init) refers to stm32f10x_gpio.o(i.GPIO_SetBits) for GPIO_SetBits
    oled.o(i.oled_spi_init) refers to spi.o(i.SPI1_Init) for SPI1_Init
    oled.o(i.oled_ssd1351_init) refers to delay.o(i.delay_ms) for delay_ms
    oled.o(i.oled_ssd1351_init) refers to oled.o(i.oled_write_Byte) for oled_write_Byte
    oled.o(i.oled_ssd1351_init) refers to oled.o(i.oled_buffer_clear) for oled_buffer_clear
    oled.o(i.oled_ssd1351_init) refers to oled.o(i.oled_refresh) for oled_refresh
    oled.o(i.oled_write_Byte) refers to spi.o(i.SPI1_ReadWriteByte) for SPI1_ReadWriteByte
    oled_mathpaint.o(i.oled_draw_circle) refers to oled.o(i.oled_draw_point) for oled_draw_point
    oled_mathpaint.o(i.oled_draw_line) refers to oled.o(i.oled_draw_point) for oled_draw_point
    oled_mathpaint.o(i.oled_draw_rectangle) refers to oled_mathpaint.o(i.oled_draw_line) for oled_draw_line
    sdio_sdcard.o(i.CmdError) refers to stm32f10x_sdio.o(i.SDIO_GetFlagStatus) for SDIO_GetFlagStatus
    sdio_sdcard.o(i.CmdError) refers to stm32f10x_sdio.o(i.SDIO_ClearFlag) for SDIO_ClearFlag
    sdio_sdcard.o(i.CmdResp1Error) refers to stm32f10x_sdio.o(i.SDIO_ClearFlag) for SDIO_ClearFlag
    sdio_sdcard.o(i.CmdResp1Error) refers to stm32f10x_sdio.o(i.SDIO_GetCommandResponse) for SDIO_GetCommandResponse
    sdio_sdcard.o(i.CmdResp1Error) refers to stm32f10x_sdio.o(i.SDIO_GetResponse) for SDIO_GetResponse
    sdio_sdcard.o(i.CmdResp2Error) refers to stm32f10x_sdio.o(i.SDIO_ClearFlag) for SDIO_ClearFlag
    sdio_sdcard.o(i.CmdResp3Error) refers to stm32f10x_sdio.o(i.SDIO_ClearFlag) for SDIO_ClearFlag
    sdio_sdcard.o(i.CmdResp6Error) refers to stm32f10x_sdio.o(i.SDIO_ClearFlag) for SDIO_ClearFlag
    sdio_sdcard.o(i.CmdResp6Error) refers to stm32f10x_sdio.o(i.SDIO_GetCommandResponse) for SDIO_GetCommandResponse
    sdio_sdcard.o(i.CmdResp6Error) refers to stm32f10x_sdio.o(i.SDIO_GetResponse) for SDIO_GetResponse
    sdio_sdcard.o(i.CmdResp7Error) refers to stm32f10x_sdio.o(i.SDIO_ClearFlag) for SDIO_ClearFlag
    sdio_sdcard.o(i.FindSCR) refers to stm32f10x_sdio.o(i.SDIO_SendCommand) for SDIO_SendCommand
    sdio_sdcard.o(i.FindSCR) refers to sdio_sdcard.o(i.CmdResp1Error) for CmdResp1Error
    sdio_sdcard.o(i.FindSCR) refers to stm32f10x_sdio.o(i.SDIO_DataConfig) for SDIO_DataConfig
    sdio_sdcard.o(i.FindSCR) refers to stm32f10x_sdio.o(i.SDIO_GetFlagStatus) for SDIO_GetFlagStatus
    sdio_sdcard.o(i.FindSCR) refers to stm32f10x_sdio.o(i.SDIO_ReadData) for SDIO_ReadData
    sdio_sdcard.o(i.FindSCR) refers to stm32f10x_sdio.o(i.SDIO_ClearFlag) for SDIO_ClearFlag
    sdio_sdcard.o(i.FindSCR) refers to sdio_sdcard.o(.bss) for SDIO_CmdInitStructure
    sdio_sdcard.o(i.FindSCR) refers to sdio_sdcard.o(.data) for RCA
    sdio_sdcard.o(i.IsCardProgramming) refers to stm32f10x_sdio.o(i.SDIO_SendCommand) for SDIO_SendCommand
    sdio_sdcard.o(i.IsCardProgramming) refers to stm32f10x_sdio.o(i.SDIO_ClearFlag) for SDIO_ClearFlag
    sdio_sdcard.o(i.IsCardProgramming) refers to stm32f10x_sdio.o(i.SDIO_GetCommandResponse) for SDIO_GetCommandResponse
    sdio_sdcard.o(i.IsCardProgramming) refers to stm32f10x_sdio.o(i.SDIO_GetResponse) for SDIO_GetResponse
    sdio_sdcard.o(i.IsCardProgramming) refers to sdio_sdcard.o(.data) for RCA
    sdio_sdcard.o(i.IsCardProgramming) refers to sdio_sdcard.o(.bss) for SDIO_CmdInitStructure
    sdio_sdcard.o(i.SDEnWideBus) refers to stm32f10x_sdio.o(i.SDIO_GetResponse) for SDIO_GetResponse
    sdio_sdcard.o(i.SDEnWideBus) refers to sdio_sdcard.o(i.FindSCR) for FindSCR
    sdio_sdcard.o(i.SDEnWideBus) refers to stm32f10x_sdio.o(i.SDIO_SendCommand) for SDIO_SendCommand
    sdio_sdcard.o(i.SDEnWideBus) refers to sdio_sdcard.o(i.CmdResp1Error) for CmdResp1Error
    sdio_sdcard.o(i.SDEnWideBus) refers to sdio_sdcard.o(.data) for RCA
    sdio_sdcard.o(i.SDEnWideBus) refers to sdio_sdcard.o(.bss) for SDIO_CmdInitStructure
    sdio_sdcard.o(i.SDIO_NVIC_Config) refers to misc.o(i.NVIC_Init) for NVIC_Init
    sdio_sdcard.o(i.SDIO_SD_GPIO_Config) refers to stm32f10x_rcc.o(i.RCC_APB2PeriphClockCmd) for RCC_APB2PeriphClockCmd
    sdio_sdcard.o(i.SDIO_SD_GPIO_Config) refers to stm32f10x_gpio.o(i.GPIO_Init) for GPIO_Init
    sdio_sdcard.o(i.SDIO_SD_GPIO_Config) refers to stm32f10x_rcc.o(i.RCC_AHBPeriphClockCmd) for RCC_AHBPeriphClockCmd
    sdio_sdcard.o(i.SD_DMA_RxConfig) refers to stm32f10x_dma.o(i.DMA_ClearFlag) for DMA_ClearFlag
    sdio_sdcard.o(i.SD_DMA_RxConfig) refers to stm32f10x_dma.o(i.DMA_Cmd) for DMA_Cmd
    sdio_sdcard.o(i.SD_DMA_RxConfig) refers to stm32f10x_dma.o(i.DMA_Init) for DMA_Init
    sdio_sdcard.o(i.SD_DMA_TxConfig) refers to stm32f10x_dma.o(i.DMA_ClearFlag) for DMA_ClearFlag
    sdio_sdcard.o(i.SD_DMA_TxConfig) refers to stm32f10x_dma.o(i.DMA_Cmd) for DMA_Cmd
    sdio_sdcard.o(i.SD_DMA_TxConfig) refers to stm32f10x_dma.o(i.DMA_Init) for DMA_Init
    sdio_sdcard.o(i.SD_Detect) refers to stm32f10x_gpio.o(i.GPIO_ReadInputDataBit) for GPIO_ReadInputDataBit
    sdio_sdcard.o(i.SD_EnableWideBusOperation) refers to sdio_sdcard.o(i.SDEnWideBus) for SDEnWideBus
    sdio_sdcard.o(i.SD_EnableWideBusOperation) refers to stm32f10x_sdio.o(i.SDIO_Init) for SDIO_Init
    sdio_sdcard.o(i.SD_EnableWideBusOperation) refers to sdio_sdcard.o(.data) for CardType
    sdio_sdcard.o(i.SD_EnableWideBusOperation) refers to sdio_sdcard.o(.bss) for SDIO_InitStructure
    sdio_sdcard.o(i.SD_Erase) refers to stm32f10x_sdio.o(i.SDIO_GetResponse) for SDIO_GetResponse
    sdio_sdcard.o(i.SD_Erase) refers to stm32f10x_sdio.o(i.SDIO_SendCommand) for SDIO_SendCommand
    sdio_sdcard.o(i.SD_Erase) refers to sdio_sdcard.o(i.CmdResp1Error) for CmdResp1Error
    sdio_sdcard.o(i.SD_Erase) refers to sdio_sdcard.o(i.IsCardProgramming) for IsCardProgramming
    sdio_sdcard.o(i.SD_Erase) refers to sdio_sdcard.o(.bss) for SDCardInfo
    sdio_sdcard.o(i.SD_Erase) refers to sdio_sdcard.o(.data) for CardType
    sdio_sdcard.o(i.SD_GetCardInfo) refers to sdio_sdcard.o(.data) for CardType
    sdio_sdcard.o(i.SD_GetState) refers to sdio_sdcard.o(i.SD_SendStatus) for SD_SendStatus
    sdio_sdcard.o(i.SD_GetStatus) refers to sdio_sdcard.o(i.SD_GetState) for SD_GetState
    sdio_sdcard.o(i.SD_Init) refers to malloc.o(i.malloc) for malloc
    sdio_sdcard.o(i.SD_Init) refers to sdio_sdcard.o(i.SDIO_NVIC_Config) for SDIO_NVIC_Config
    sdio_sdcard.o(i.SD_Init) refers to sdio_sdcard.o(i.SDIO_SD_GPIO_Config) for SDIO_SD_GPIO_Config
    sdio_sdcard.o(i.SD_Init) refers to stm32f10x_sdio.o(i.SDIO_DeInit) for SDIO_DeInit
    sdio_sdcard.o(i.SD_Init) refers to sdio_sdcard.o(i.SD_PowerON) for SD_PowerON
    sdio_sdcard.o(i.SD_Init) refers to sdio_sdcard.o(i.SD_InitializeCards) for SD_InitializeCards
    sdio_sdcard.o(i.SD_Init) refers to stm32f10x_sdio.o(i.SDIO_Init) for SDIO_Init
    sdio_sdcard.o(i.SD_Init) refers to sdio_sdcard.o(i.SD_GetCardInfo) for SD_GetCardInfo
    sdio_sdcard.o(i.SD_Init) refers to sdio_sdcard.o(i.SD_SelectDeselect) for SD_SelectDeselect
    sdio_sdcard.o(i.SD_Init) refers to sdio_sdcard.o(i.SD_EnableWideBusOperation) for SD_EnableWideBusOperation
    sdio_sdcard.o(i.SD_Init) refers to malloc.o(i.free) for free
    sdio_sdcard.o(i.SD_Init) refers to sdio_sdcard.o(.data) for CID_Tab
    sdio_sdcard.o(i.SD_Init) refers to sdio_sdcard.o(.bss) for SDIO_InitStructure
    sdio_sdcard.o(i.SD_InitializeCards) refers to stm32f10x_sdio.o(i.SDIO_GetPowerState) for SDIO_GetPowerState
    sdio_sdcard.o(i.SD_InitializeCards) refers to stm32f10x_sdio.o(i.SDIO_SendCommand) for SDIO_SendCommand
    sdio_sdcard.o(i.SD_InitializeCards) refers to sdio_sdcard.o(i.CmdResp2Error) for CmdResp2Error
    sdio_sdcard.o(i.SD_InitializeCards) refers to stm32f10x_sdio.o(i.SDIO_GetResponse) for SDIO_GetResponse
    sdio_sdcard.o(i.SD_InitializeCards) refers to sdio_sdcard.o(i.CmdResp6Error) for CmdResp6Error
    sdio_sdcard.o(i.SD_InitializeCards) refers to sdio_sdcard.o(.data) for CardType
    sdio_sdcard.o(i.SD_InitializeCards) refers to sdio_sdcard.o(.bss) for SDIO_CmdInitStructure
    sdio_sdcard.o(i.SD_PowerOFF) refers to stm32f10x_sdio.o(i.SDIO_SetPowerState) for SDIO_SetPowerState
    sdio_sdcard.o(i.SD_PowerON) refers to stm32f10x_sdio.o(i.SDIO_Init) for SDIO_Init
    sdio_sdcard.o(i.SD_PowerON) refers to stm32f10x_sdio.o(i.SDIO_SetPowerState) for SDIO_SetPowerState
    sdio_sdcard.o(i.SD_PowerON) refers to stm32f10x_sdio.o(i.SDIO_ClockCmd) for SDIO_ClockCmd
    sdio_sdcard.o(i.SD_PowerON) refers to stm32f10x_sdio.o(i.SDIO_SendCommand) for SDIO_SendCommand
    sdio_sdcard.o(i.SD_PowerON) refers to sdio_sdcard.o(i.CmdError) for CmdError
    sdio_sdcard.o(i.SD_PowerON) refers to sdio_sdcard.o(i.CmdResp7Error) for CmdResp7Error
    sdio_sdcard.o(i.SD_PowerON) refers to sdio_sdcard.o(i.CmdResp1Error) for CmdResp1Error
    sdio_sdcard.o(i.SD_PowerON) refers to sdio_sdcard.o(i.CmdResp3Error) for CmdResp3Error
    sdio_sdcard.o(i.SD_PowerON) refers to stm32f10x_sdio.o(i.SDIO_GetResponse) for SDIO_GetResponse
    sdio_sdcard.o(i.SD_PowerON) refers to sdio_sdcard.o(.bss) for SDIO_InitStructure
    sdio_sdcard.o(i.SD_PowerON) refers to sdio_sdcard.o(.data) for CardType
    sdio_sdcard.o(i.SD_ProcessIRQSrc) refers to sdio_sdcard.o(i.CmdResp1Error) for CmdResp1Error
    sdio_sdcard.o(i.SD_ProcessIRQSrc) refers to stm32f10x_sdio.o(i.SDIO_ClearITPendingBit) for SDIO_ClearITPendingBit
    sdio_sdcard.o(i.SD_ProcessIRQSrc) refers to stm32f10x_sdio.o(i.SDIO_ITConfig) for SDIO_ITConfig
    sdio_sdcard.o(i.SD_ProcessIRQSrc) refers to sdio_sdcard.o(.data) for StopCondition
    sdio_sdcard.o(i.SD_ReadBlock) refers to stm32f10x_sdio.o(i.SDIO_SendCommand) for SDIO_SendCommand
    sdio_sdcard.o(i.SD_ReadBlock) refers to sdio_sdcard.o(i.CmdResp1Error) for CmdResp1Error
    sdio_sdcard.o(i.SD_ReadBlock) refers to stm32f10x_sdio.o(i.SDIO_DataConfig) for SDIO_DataConfig
    sdio_sdcard.o(i.SD_ReadBlock) refers to stm32f10x_sdio.o(i.SDIO_ITConfig) for SDIO_ITConfig
    sdio_sdcard.o(i.SD_ReadBlock) refers to stm32f10x_sdio.o(i.SDIO_DMACmd) for SDIO_DMACmd
    sdio_sdcard.o(i.SD_ReadBlock) refers to sdio_sdcard.o(i.SD_DMA_RxConfig) for SD_DMA_RxConfig
    sdio_sdcard.o(i.SD_ReadBlock) refers to sdio_sdcard.o(.data) for TransferError
    sdio_sdcard.o(i.SD_ReadBlock) refers to sdio_sdcard.o(.bss) for SDIO_CmdInitStructure
    sdio_sdcard.o(i.SD_ReadMultiBlocks) refers to stm32f10x_sdio.o(i.SDIO_SendCommand) for SDIO_SendCommand
    sdio_sdcard.o(i.SD_ReadMultiBlocks) refers to sdio_sdcard.o(i.CmdResp1Error) for CmdResp1Error
    sdio_sdcard.o(i.SD_ReadMultiBlocks) refers to stm32f10x_sdio.o(i.SDIO_DataConfig) for SDIO_DataConfig
    sdio_sdcard.o(i.SD_ReadMultiBlocks) refers to stm32f10x_sdio.o(i.SDIO_ITConfig) for SDIO_ITConfig
    sdio_sdcard.o(i.SD_ReadMultiBlocks) refers to stm32f10x_sdio.o(i.SDIO_DMACmd) for SDIO_DMACmd
    sdio_sdcard.o(i.SD_ReadMultiBlocks) refers to sdio_sdcard.o(i.SD_DMA_RxConfig) for SD_DMA_RxConfig
    sdio_sdcard.o(i.SD_ReadMultiBlocks) refers to sdio_sdcard.o(.data) for TransferError
    sdio_sdcard.o(i.SD_ReadMultiBlocks) refers to sdio_sdcard.o(.bss) for SDIO_CmdInitStructure
    sdio_sdcard.o(i.SD_SelectDeselect) refers to stm32f10x_sdio.o(i.SDIO_SendCommand) for SDIO_SendCommand
    sdio_sdcard.o(i.SD_SelectDeselect) refers to sdio_sdcard.o(i.CmdResp1Error) for CmdResp1Error
    sdio_sdcard.o(i.SD_SelectDeselect) refers to sdio_sdcard.o(.bss) for SDIO_CmdInitStructure
    sdio_sdcard.o(i.SD_SendSDStatus) refers to stm32f10x_sdio.o(i.SDIO_GetResponse) for SDIO_GetResponse
    sdio_sdcard.o(i.SD_SendSDStatus) refers to stm32f10x_sdio.o(i.SDIO_SendCommand) for SDIO_SendCommand
    sdio_sdcard.o(i.SD_SendSDStatus) refers to sdio_sdcard.o(i.CmdResp1Error) for CmdResp1Error
    sdio_sdcard.o(i.SD_SendSDStatus) refers to stm32f10x_sdio.o(i.SDIO_DataConfig) for SDIO_DataConfig
    sdio_sdcard.o(i.SD_SendSDStatus) refers to stm32f10x_sdio.o(i.SDIO_GetFlagStatus) for SDIO_GetFlagStatus
    sdio_sdcard.o(i.SD_SendSDStatus) refers to stm32f10x_sdio.o(i.SDIO_ReadData) for SDIO_ReadData
    sdio_sdcard.o(i.SD_SendSDStatus) refers to stm32f10x_sdio.o(i.SDIO_ClearFlag) for SDIO_ClearFlag
    sdio_sdcard.o(i.SD_SendSDStatus) refers to sdio_sdcard.o(.bss) for SDIO_CmdInitStructure
    sdio_sdcard.o(i.SD_SendSDStatus) refers to sdio_sdcard.o(.data) for RCA
    sdio_sdcard.o(i.SD_SendStatus) refers to sdio_sdcard.o(i.CmdResp1Error) for CmdResp1Error
    sdio_sdcard.o(i.SD_SendStatus) refers to sdio_sdcard.o(.data) for RCA
    sdio_sdcard.o(i.SD_StopTransfer) refers to sdio_sdcard.o(i.CmdResp1Error) for CmdResp1Error
    sdio_sdcard.o(i.SD_WaitReadOperation) refers to stm32f10x_dma.o(i.DMA_GetFlagStatus) for DMA_GetFlagStatus
    sdio_sdcard.o(i.SD_WaitReadOperation) refers to stm32f10x_sdio.o(i.SDIO_ClearFlag) for SDIO_ClearFlag
    sdio_sdcard.o(i.SD_WaitReadOperation) refers to sdio_sdcard.o(.data) for TransferEnd
    sdio_sdcard.o(i.SD_WaitWriteOperation) refers to stm32f10x_dma.o(i.DMA_GetFlagStatus) for DMA_GetFlagStatus
    sdio_sdcard.o(i.SD_WaitWriteOperation) refers to stm32f10x_sdio.o(i.SDIO_ClearFlag) for SDIO_ClearFlag
    sdio_sdcard.o(i.SD_WaitWriteOperation) refers to sdio_sdcard.o(.data) for TransferEnd
    sdio_sdcard.o(i.SD_WriteBlock) refers to stm32f10x_sdio.o(i.SDIO_SendCommand) for SDIO_SendCommand
    sdio_sdcard.o(i.SD_WriteBlock) refers to sdio_sdcard.o(i.CmdResp1Error) for CmdResp1Error
    sdio_sdcard.o(i.SD_WriteBlock) refers to stm32f10x_sdio.o(i.SDIO_DataConfig) for SDIO_DataConfig
    sdio_sdcard.o(i.SD_WriteBlock) refers to stm32f10x_sdio.o(i.SDIO_ITConfig) for SDIO_ITConfig
    sdio_sdcard.o(i.SD_WriteBlock) refers to sdio_sdcard.o(i.SD_DMA_TxConfig) for SD_DMA_TxConfig
    sdio_sdcard.o(i.SD_WriteBlock) refers to stm32f10x_sdio.o(i.SDIO_DMACmd) for SDIO_DMACmd
    sdio_sdcard.o(i.SD_WriteBlock) refers to sdio_sdcard.o(.data) for TransferError
    sdio_sdcard.o(i.SD_WriteBlock) refers to sdio_sdcard.o(.bss) for SDIO_CmdInitStructure
    sdio_sdcard.o(i.SD_WriteMultiBlocks) refers to stm32f10x_sdio.o(i.SDIO_SendCommand) for SDIO_SendCommand
    sdio_sdcard.o(i.SD_WriteMultiBlocks) refers to sdio_sdcard.o(i.CmdResp1Error) for CmdResp1Error
    sdio_sdcard.o(i.SD_WriteMultiBlocks) refers to stm32f10x_sdio.o(i.SDIO_DataConfig) for SDIO_DataConfig
    sdio_sdcard.o(i.SD_WriteMultiBlocks) refers to stm32f10x_sdio.o(i.SDIO_ITConfig) for SDIO_ITConfig
    sdio_sdcard.o(i.SD_WriteMultiBlocks) refers to stm32f10x_sdio.o(i.SDIO_DMACmd) for SDIO_DMACmd
    sdio_sdcard.o(i.SD_WriteMultiBlocks) refers to sdio_sdcard.o(i.SD_DMA_TxConfig) for SD_DMA_TxConfig
    sdio_sdcard.o(i.SD_WriteMultiBlocks) refers to sdio_sdcard.o(.data) for TransferError
    sdio_sdcard.o(i.SD_WriteMultiBlocks) refers to sdio_sdcard.o(.bss) for SDIO_CmdInitStructure
    si24r1.o(i.EXTI4_IRQHandler) refers to stm32f10x_exti.o(i.EXTI_GetITStatus) for EXTI_GetITStatus
    si24r1.o(i.EXTI4_IRQHandler) refers to stm32f10x_exti.o(i.EXTI_ClearITPendingBit) for EXTI_ClearITPendingBit
    si24r1.o(i.EXTI4_IRQHandler) refers to si24r1.o(.data) for NRF_IRQ_TRIG
    si24r1.o(i.NRF_IRQ_Config) refers to stm32f10x_rcc.o(i.RCC_APB2PeriphClockCmd) for RCC_APB2PeriphClockCmd
    si24r1.o(i.NRF_IRQ_Config) refers to stm32f10x_gpio.o(i.GPIO_Init) for GPIO_Init
    si24r1.o(i.NRF_IRQ_Config) refers to stm32f10x_gpio.o(i.GPIO_EXTILineConfig) for GPIO_EXTILineConfig
    si24r1.o(i.NRF_IRQ_Config) refers to stm32f10x_exti.o(i.EXTI_Init) for EXTI_Init
    si24r1.o(i.NRF_IRQ_Config) refers to misc.o(i.NVIC_Init) for NVIC_Init
    si24r1.o(i.si24r1_RX_RSSI) refers to si24r1.o(i.si24r1_read_once) for si24r1_read_once
    si24r1.o(i.si24r1_RX_mode) refers to si24r1.o(i.si24r1_write_buf) for si24r1_write_buf
    si24r1.o(i.si24r1_RX_mode) refers to si24r1.o(i.si24r1_write_once) for si24r1_write_once
    si24r1.o(i.si24r1_RX_mode) refers to si24r1.o(.constdata) for RX_ADDRESS
    si24r1.o(i.si24r1_RX_packet) refers to si24r1.o(i.si24r1_read_once) for si24r1_read_once
    si24r1.o(i.si24r1_RX_packet) refers to si24r1.o(i.si24r1_write_once) for si24r1_write_once
    si24r1.o(i.si24r1_RX_packet) refers to si24r1.o(i.si24r1_write_buf) for si24r1_write_buf
    si24r1.o(i.si24r1_RX_packet) refers to si24r1.o(i.si24r1_read_buf) for si24r1_read_buf
    si24r1.o(i.si24r1_TX_mode) refers to si24r1.o(i.si24r1_write_buf) for si24r1_write_buf
    si24r1.o(i.si24r1_TX_mode) refers to si24r1.o(i.si24r1_write_once) for si24r1_write_once
    si24r1.o(i.si24r1_TX_mode) refers to si24r1.o(.constdata) for TX_ADDRESS
    si24r1.o(i.si24r1_TX_packet) refers to si24r1.o(i.si24r1_write_buf) for si24r1_write_buf
    si24r1.o(i.si24r1_TX_packet) refers to si24r1.o(i.si24r1_read_once) for si24r1_read_once
    si24r1.o(i.si24r1_TX_packet) refers to si24r1.o(i.si24r1_write_once) for si24r1_write_once
    si24r1.o(i.si24r1_TX_packet) refers to si24r1.o(i.si24r1_read_buf) for si24r1_read_buf
    si24r1.o(i.si24r1_detect) refers to si24r1.o(i.si24r1_write_buf) for si24r1_write_buf
    si24r1.o(i.si24r1_detect) refers to si24r1.o(i.si24r1_read_buf) for si24r1_read_buf
    si24r1.o(i.si24r1_read_buf) refers to spi.o(i.SPI2_ReadWriteByte) for SPI2_ReadWriteByte
    si24r1.o(i.si24r1_read_once) refers to spi.o(i.SPI2_ReadWriteByte) for SPI2_ReadWriteByte
    si24r1.o(i.si24r1_spi_init) refers to stm32f10x_rcc.o(i.RCC_APB2PeriphClockCmd) for RCC_APB2PeriphClockCmd
    si24r1.o(i.si24r1_spi_init) refers to stm32f10x_gpio.o(i.GPIO_Init) for GPIO_Init
    si24r1.o(i.si24r1_spi_init) refers to stm32f10x_gpio.o(i.GPIO_SetBits) for GPIO_SetBits
    si24r1.o(i.si24r1_spi_init) refers to stm32f10x_gpio.o(i.GPIO_ResetBits) for GPIO_ResetBits
    si24r1.o(i.si24r1_spi_init) refers to spi.o(i.SPI2_Init) for SPI2_Init
    si24r1.o(i.si24r1_write_buf) refers to spi.o(i.SPI2_ReadWriteByte) for SPI2_ReadWriteByte
    si24r1.o(i.si24r1_write_once) refers to spi.o(i.SPI2_ReadWriteByte) for SPI2_ReadWriteByte
    timer.o(i.TIM1_PWM_Init) refers to stm32f10x_rcc.o(i.RCC_APB2PeriphClockCmd) for RCC_APB2PeriphClockCmd
    timer.o(i.TIM1_PWM_Init) refers to stm32f10x_gpio.o(i.GPIO_Init) for GPIO_Init
    timer.o(i.TIM1_PWM_Init) refers to stm32f10x_tim.o(i.TIM_TimeBaseInit) for TIM_TimeBaseInit
    timer.o(i.TIM1_PWM_Init) refers to stm32f10x_tim.o(i.TIM_OC1Init) for TIM_OC1Init
    timer.o(i.TIM1_PWM_Init) refers to stm32f10x_tim.o(i.TIM_CtrlPWMOutputs) for TIM_CtrlPWMOutputs
    timer.o(i.TIM1_PWM_Init) refers to stm32f10x_tim.o(i.TIM_OC1PreloadConfig) for TIM_OC1PreloadConfig
    timer.o(i.TIM1_PWM_Init) refers to stm32f10x_tim.o(i.TIM_ARRPreloadConfig) for TIM_ARRPreloadConfig
    timer.o(i.TIM1_PWM_Init) refers to stm32f10x_tim.o(i.TIM_Cmd) for TIM_Cmd
    timer.o(i.TIM3_Config_Init) refers to stm32f10x_rcc.o(i.RCC_APB1PeriphClockCmd) for RCC_APB1PeriphClockCmd
    timer.o(i.TIM3_Config_Init) refers to stm32f10x_tim.o(i.TIM_TimeBaseInit) for TIM_TimeBaseInit
    timer.o(i.TIM3_Config_Init) refers to stm32f10x_tim.o(i.TIM_ITConfig) for TIM_ITConfig
    timer.o(i.TIM3_Config_Init) refers to misc.o(i.NVIC_Init) for NVIC_Init
    timer.o(i.TIM3_Config_Init) refers to stm32f10x_tim.o(i.TIM_Cmd) for TIM_Cmd
    i2c.o(i.I2C_ReadBytes) refers to i2c.o(i.IIC_Start) for IIC_Start
    i2c.o(i.I2C_ReadBytes) refers to i2c.o(i.IIC_Send_Byte) for IIC_Send_Byte
    i2c.o(i.I2C_ReadBytes) refers to i2c.o(i.IIC_Wait_Ack) for IIC_Wait_Ack
    i2c.o(i.I2C_ReadBytes) refers to i2c.o(i.IIC_Read_Byte) for IIC_Read_Byte
    i2c.o(i.I2C_ReadBytes) refers to i2c.o(i.IIC_Stop) for IIC_Stop
    i2c.o(i.I2C_WriteBytes) refers to i2c.o(i.IIC_Start) for IIC_Start
    i2c.o(i.I2C_WriteBytes) refers to i2c.o(i.IIC_Send_Byte) for IIC_Send_Byte
    i2c.o(i.I2C_WriteBytes) refers to i2c.o(i.IIC_Wait_Ack) for IIC_Wait_Ack
    i2c.o(i.I2C_WriteBytes) refers to i2c.o(i.IIC_Stop) for IIC_Stop
    i2c.o(i.IIC_Ack) refers to i2c.o(i.SDA_OUT) for SDA_OUT
    i2c.o(i.IIC_Ack) refers to delay.o(i.delay_us) for delay_us
    i2c.o(i.IIC_Init) refers to stm32f10x_rcc.o(i.RCC_APB2PeriphClockCmd) for RCC_APB2PeriphClockCmd
    i2c.o(i.IIC_Init) refers to stm32f10x_gpio.o(i.GPIO_Init) for GPIO_Init
    i2c.o(i.IIC_NAck) refers to i2c.o(i.SDA_OUT) for SDA_OUT
    i2c.o(i.IIC_NAck) refers to delay.o(i.delay_us) for delay_us
    i2c.o(i.IIC_Read_Byte) refers to i2c.o(i.SDA_IN) for SDA_IN
    i2c.o(i.IIC_Read_Byte) refers to delay.o(i.delay_us) for delay_us
    i2c.o(i.IIC_Read_Byte) refers to i2c.o(i.IIC_Ack) for IIC_Ack
    i2c.o(i.IIC_Read_Byte) refers to i2c.o(i.IIC_NAck) for IIC_NAck
    i2c.o(i.IIC_Send_Byte) refers to i2c.o(i.SDA_OUT) for SDA_OUT
    i2c.o(i.IIC_Send_Byte) refers to delay.o(i.delay_us) for delay_us
    i2c.o(i.IIC_Start) refers to i2c.o(i.SDA_OUT) for SDA_OUT
    i2c.o(i.IIC_Start) refers to delay.o(i.delay_us) for delay_us
    i2c.o(i.IIC_Stop) refers to i2c.o(i.SDA_OUT) for SDA_OUT
    i2c.o(i.IIC_Stop) refers to delay.o(i.delay_us) for delay_us
    i2c.o(i.IIC_Wait_Ack) refers to i2c.o(i.SDA_IN) for SDA_IN
    i2c.o(i.IIC_Wait_Ack) refers to delay.o(i.delay_us) for delay_us
    i2c.o(i.IIC_Wait_Ack) refers to i2c.o(i.IIC_Stop) for IIC_Stop
    i2c.o(i.SDA_IN) refers to i2c.o(i.log2_offset) for log2_offset
    i2c.o(i.SDA_OUT) refers to i2c.o(i.log2_offset) for log2_offset
    diskio.o(i.disk_initialize) refers to sdio_sdcard.o(i.SD_Init) for SD_Init
    diskio.o(i.disk_ioctl) refers to uldiv.o(.text) for __aeabi_uldivmod
    diskio.o(i.disk_ioctl) refers to sdio_sdcard.o(.bss) for SDCardInfo
    diskio.o(i.disk_read) refers to malloc.o(i.malloc) for malloc
    diskio.o(i.disk_read) refers to memcpya.o(.text) for __aeabi_memcpy
    diskio.o(i.disk_read) refers to malloc.o(i.free) for free
    diskio.o(i.disk_read) refers to sdio_sdcard.o(i.SD_ReadMultiBlocks) for SD_ReadMultiBlocks
    diskio.o(i.disk_read) refers to sdio_sdcard.o(i.SD_WaitReadOperation) for SD_WaitReadOperation
    diskio.o(i.disk_read) refers to sdio_sdcard.o(i.SD_GetStatus) for SD_GetStatus
    diskio.o(i.disk_read) refers to sdio_sdcard.o(.bss) for SDCardInfo
    diskio.o(i.disk_write) refers to malloc.o(i.malloc) for malloc
    diskio.o(i.disk_write) refers to memcpya.o(.text) for __aeabi_memcpy
    diskio.o(i.disk_write) refers to malloc.o(i.free) for free
    diskio.o(i.disk_write) refers to sdio_sdcard.o(i.SD_WriteBlock) for SD_WriteBlock
    diskio.o(i.disk_write) refers to sdio_sdcard.o(i.SD_WriteMultiBlocks) for SD_WriteMultiBlocks
    diskio.o(i.disk_write) refers to sdio_sdcard.o(i.SD_WaitWriteOperation) for SD_WaitWriteOperation
    diskio.o(i.disk_write) refers to sdio_sdcard.o(i.SD_GetStatus) for SD_GetStatus
    diskio.o(i.disk_write) refers to sdio_sdcard.o(.bss) for SDCardInfo
    ff.o(i.check_fs) refers to ff.o(i.move_window) for move_window
    ff.o(i.cmp_lfn) refers to ccsbcs.o(i.ff_wtoupper) for ff_wtoupper
    ff.o(i.cmp_lfn) refers to ff.o(.constdata) for LfnOfs
    ff.o(i.create_chain) refers to ff.o(i.get_fat) for get_fat
    ff.o(i.create_chain) refers to ff.o(i.put_fat) for put_fat
    ff.o(i.create_name) refers to ccsbcs.o(i.ff_convert) for ff_convert
    ff.o(i.create_name) refers to ff.o(i.chk_chr) for chk_chr
    ff.o(i.create_name) refers to ff.o(i.mem_set) for mem_set
    ff.o(i.create_name) refers to ff.o(.constdata) for ExCvt
    ff.o(i.dir_alloc) refers to ff.o(i.dir_sdi) for dir_sdi
    ff.o(i.dir_alloc) refers to ff.o(i.move_window) for move_window
    ff.o(i.dir_alloc) refers to ff.o(i.dir_next) for dir_next
    ff.o(i.dir_find) refers to ff.o(i.dir_sdi) for dir_sdi
    ff.o(i.dir_find) refers to ff.o(i.move_window) for move_window
    ff.o(i.dir_find) refers to ff.o(i.cmp_lfn) for cmp_lfn
    ff.o(i.dir_find) refers to ff.o(i.sum_sfn) for sum_sfn
    ff.o(i.dir_find) refers to ff.o(i.mem_cmp) for mem_cmp
    ff.o(i.dir_find) refers to ff.o(i.dir_next) for dir_next
    ff.o(i.dir_next) refers to ff.o(i.get_fat) for get_fat
    ff.o(i.dir_next) refers to ff.o(i.create_chain) for create_chain
    ff.o(i.dir_next) refers to ff.o(i.sync_window) for sync_window
    ff.o(i.dir_next) refers to ff.o(i.mem_set) for mem_set
    ff.o(i.dir_next) refers to ff.o(i.clust2sect) for clust2sect
    ff.o(i.dir_read) refers to ff.o(i.move_window) for move_window
    ff.o(i.dir_read) refers to ff.o(i.pick_lfn) for pick_lfn
    ff.o(i.dir_read) refers to ff.o(i.sum_sfn) for sum_sfn
    ff.o(i.dir_read) refers to ff.o(i.dir_next) for dir_next
    ff.o(i.dir_register) refers to ff.o(i.mem_cpy) for mem_cpy
    ff.o(i.dir_register) refers to ff.o(i.gen_numname) for gen_numname
    ff.o(i.dir_register) refers to ff.o(i.dir_find) for dir_find
    ff.o(i.dir_register) refers to ff.o(i.dir_alloc) for dir_alloc
    ff.o(i.dir_register) refers to ff.o(i.dir_sdi) for dir_sdi
    ff.o(i.dir_register) refers to ff.o(i.sum_sfn) for sum_sfn
    ff.o(i.dir_register) refers to ff.o(i.move_window) for move_window
    ff.o(i.dir_register) refers to ff.o(i.fit_lfn) for fit_lfn
    ff.o(i.dir_register) refers to ff.o(i.dir_next) for dir_next
    ff.o(i.dir_register) refers to ff.o(i.mem_set) for mem_set
    ff.o(i.dir_remove) refers to ff.o(i.dir_sdi) for dir_sdi
    ff.o(i.dir_remove) refers to ff.o(i.move_window) for move_window
    ff.o(i.dir_remove) refers to ff.o(i.mem_set) for mem_set
    ff.o(i.dir_remove) refers to ff.o(i.dir_next) for dir_next
    ff.o(i.dir_sdi) refers to ff.o(i.get_fat) for get_fat
    ff.o(i.dir_sdi) refers to ff.o(i.clust2sect) for clust2sect
    ff.o(i.f_chmod) refers to ff.o(i.find_volume) for find_volume
    ff.o(i.f_chmod) refers to ff.o(i.follow_path) for follow_path
    ff.o(i.f_chmod) refers to ff.o(i.sync_fs) for sync_fs
    ff.o(i.f_close) refers to ff.o(i.f_sync) for f_sync
    ff.o(i.f_close) refers to ff.o(i.validate) for validate
    ff.o(i.f_closedir) refers to ff.o(i.validate) for validate
    ff.o(i.f_getfree) refers to ff.o(i.find_volume) for find_volume
    ff.o(i.f_getfree) refers to ff.o(i.get_fat) for get_fat
    ff.o(i.f_getfree) refers to ff.o(i.move_window) for move_window
    ff.o(i.f_gets) refers to ff.o(i.f_read) for f_read
    ff.o(i.f_lseek) refers to ff.o(i.validate) for validate
    ff.o(i.f_lseek) refers to ff.o(i.get_fat) for get_fat
    ff.o(i.f_lseek) refers to ff.o(i.clmt_clust) for clmt_clust
    ff.o(i.f_lseek) refers to ff.o(i.clust2sect) for clust2sect
    ff.o(i.f_lseek) refers to diskio.o(i.disk_write) for disk_write
    ff.o(i.f_lseek) refers to diskio.o(i.disk_read) for disk_read
    ff.o(i.f_lseek) refers to ff.o(i.create_chain) for create_chain
    ff.o(i.f_mkdir) refers to diskio.o(i.get_fattime) for get_fattime
    ff.o(i.f_mkdir) refers to ff.o(i.find_volume) for find_volume
    ff.o(i.f_mkdir) refers to ff.o(i.follow_path) for follow_path
    ff.o(i.f_mkdir) refers to ff.o(i.create_chain) for create_chain
    ff.o(i.f_mkdir) refers to ff.o(i.sync_window) for sync_window
    ff.o(i.f_mkdir) refers to ff.o(i.clust2sect) for clust2sect
    ff.o(i.f_mkdir) refers to ff.o(i.mem_set) for mem_set
    ff.o(i.f_mkdir) refers to ff.o(i.st_clust) for st_clust
    ff.o(i.f_mkdir) refers to ff.o(i.mem_cpy) for mem_cpy
    ff.o(i.f_mkdir) refers to ff.o(i.dir_register) for dir_register
    ff.o(i.f_mkdir) refers to ff.o(i.remove_chain) for remove_chain
    ff.o(i.f_mkdir) refers to ff.o(i.sync_fs) for sync_fs
    ff.o(i.f_mkfs) refers to ff.o(i.get_ldnumber) for get_ldnumber
    ff.o(i.f_mkfs) refers to diskio.o(i.disk_initialize) for disk_initialize
    ff.o(i.f_mkfs) refers to diskio.o(i.disk_ioctl) for disk_ioctl
    ff.o(i.f_mkfs) refers to ff.o(i.mem_set) for mem_set
    ff.o(i.f_mkfs) refers to diskio.o(i.disk_write) for disk_write
    ff.o(i.f_mkfs) refers to ff.o(i.mem_cpy) for mem_cpy
    ff.o(i.f_mkfs) refers to diskio.o(i.get_fattime) for get_fattime
    ff.o(i.f_mkfs) refers to ff.o(.data) for FatFs
    ff.o(i.f_mkfs) refers to ff.o(.constdata) for vst
    ff.o(i.f_mount) refers to ff.o(i.get_ldnumber) for get_ldnumber
    ff.o(i.f_mount) refers to ff.o(i.find_volume) for find_volume
    ff.o(i.f_mount) refers to ff.o(.data) for FatFs
    ff.o(i.f_open) refers to ff.o(i.find_volume) for find_volume
    ff.o(i.f_open) refers to ff.o(i.follow_path) for follow_path
    ff.o(i.f_open) refers to ff.o(i.dir_register) for dir_register
    ff.o(i.f_open) refers to diskio.o(i.get_fattime) for get_fattime
    ff.o(i.f_open) refers to ff.o(i.ld_clust) for ld_clust
    ff.o(i.f_open) refers to ff.o(i.st_clust) for st_clust
    ff.o(i.f_open) refers to ff.o(i.remove_chain) for remove_chain
    ff.o(i.f_open) refers to ff.o(i.move_window) for move_window
    ff.o(i.f_opendir) refers to ff.o(i.find_volume) for find_volume
    ff.o(i.f_opendir) refers to ff.o(i.follow_path) for follow_path
    ff.o(i.f_opendir) refers to ff.o(i.ld_clust) for ld_clust
    ff.o(i.f_opendir) refers to ff.o(i.dir_sdi) for dir_sdi
    ff.o(i.f_printf) refers to ff.o(i.putc_bfd) for putc_bfd
    ff.o(i.f_printf) refers to ff.o(i.f_write) for f_write
    ff.o(i.f_putc) refers to ff.o(i.putc_bfd) for putc_bfd
    ff.o(i.f_putc) refers to ff.o(i.f_write) for f_write
    ff.o(i.f_puts) refers to ff.o(i.putc_bfd) for putc_bfd
    ff.o(i.f_puts) refers to ff.o(i.f_write) for f_write
    ff.o(i.f_read) refers to ff.o(i.validate) for validate
    ff.o(i.f_read) refers to ff.o(i.clmt_clust) for clmt_clust
    ff.o(i.f_read) refers to ff.o(i.get_fat) for get_fat
    ff.o(i.f_read) refers to ff.o(i.clust2sect) for clust2sect
    ff.o(i.f_read) refers to diskio.o(i.disk_read) for disk_read
    ff.o(i.f_read) refers to ff.o(i.mem_cpy) for mem_cpy
    ff.o(i.f_read) refers to diskio.o(i.disk_write) for disk_write
    ff.o(i.f_readdir) refers to ff.o(i.validate) for validate
    ff.o(i.f_readdir) refers to ff.o(i.dir_sdi) for dir_sdi
    ff.o(i.f_readdir) refers to ff.o(i.dir_read) for dir_read
    ff.o(i.f_readdir) refers to ff.o(i.get_fileinfo) for get_fileinfo
    ff.o(i.f_readdir) refers to ff.o(i.dir_next) for dir_next
    ff.o(i.f_rename) refers to ff.o(i.find_volume) for find_volume
    ff.o(i.f_rename) refers to ff.o(i.follow_path) for follow_path
    ff.o(i.f_rename) refers to ff.o(i.mem_cpy) for mem_cpy
    ff.o(i.f_rename) refers to ff.o(i.get_ldnumber) for get_ldnumber
    ff.o(i.f_rename) refers to ff.o(i.dir_register) for dir_register
    ff.o(i.f_rename) refers to ff.o(i.ld_clust) for ld_clust
    ff.o(i.f_rename) refers to ff.o(i.clust2sect) for clust2sect
    ff.o(i.f_rename) refers to ff.o(i.move_window) for move_window
    ff.o(i.f_rename) refers to ff.o(i.st_clust) for st_clust
    ff.o(i.f_rename) refers to ff.o(i.dir_remove) for dir_remove
    ff.o(i.f_rename) refers to ff.o(i.sync_fs) for sync_fs
    ff.o(i.f_stat) refers to ff.o(i.find_volume) for find_volume
    ff.o(i.f_stat) refers to ff.o(i.follow_path) for follow_path
    ff.o(i.f_stat) refers to ff.o(i.get_fileinfo) for get_fileinfo
    ff.o(i.f_sync) refers to ff.o(i.validate) for validate
    ff.o(i.f_sync) refers to diskio.o(i.disk_write) for disk_write
    ff.o(i.f_sync) refers to ff.o(i.move_window) for move_window
    ff.o(i.f_sync) refers to ff.o(i.st_clust) for st_clust
    ff.o(i.f_sync) refers to diskio.o(i.get_fattime) for get_fattime
    ff.o(i.f_sync) refers to ff.o(i.sync_fs) for sync_fs
    ff.o(i.f_truncate) refers to ff.o(i.validate) for validate
    ff.o(i.f_truncate) refers to ff.o(i.remove_chain) for remove_chain
    ff.o(i.f_truncate) refers to ff.o(i.get_fat) for get_fat
    ff.o(i.f_truncate) refers to ff.o(i.put_fat) for put_fat
    ff.o(i.f_truncate) refers to diskio.o(i.disk_write) for disk_write
    ff.o(i.f_unlink) refers to ff.o(i.find_volume) for find_volume
    ff.o(i.f_unlink) refers to ff.o(i.follow_path) for follow_path
    ff.o(i.f_unlink) refers to ff.o(i.ld_clust) for ld_clust
    ff.o(i.f_unlink) refers to ff.o(i.mem_cpy) for mem_cpy
    ff.o(i.f_unlink) refers to ff.o(i.dir_sdi) for dir_sdi
    ff.o(i.f_unlink) refers to ff.o(i.dir_read) for dir_read
    ff.o(i.f_unlink) refers to ff.o(i.dir_remove) for dir_remove
    ff.o(i.f_unlink) refers to ff.o(i.remove_chain) for remove_chain
    ff.o(i.f_unlink) refers to ff.o(i.sync_fs) for sync_fs
    ff.o(i.f_utime) refers to ff.o(i.find_volume) for find_volume
    ff.o(i.f_utime) refers to ff.o(i.follow_path) for follow_path
    ff.o(i.f_utime) refers to ff.o(i.sync_fs) for sync_fs
    ff.o(i.f_write) refers to ff.o(i.validate) for validate
    ff.o(i.f_write) refers to ff.o(i.create_chain) for create_chain
    ff.o(i.f_write) refers to ff.o(i.clmt_clust) for clmt_clust
    ff.o(i.f_write) refers to diskio.o(i.disk_write) for disk_write
    ff.o(i.f_write) refers to ff.o(i.clust2sect) for clust2sect
    ff.o(i.f_write) refers to ff.o(i.mem_cpy) for mem_cpy
    ff.o(i.f_write) refers to diskio.o(i.disk_read) for disk_read
    ff.o(i.find_volume) refers to ff.o(i.get_ldnumber) for get_ldnumber
    ff.o(i.find_volume) refers to diskio.o(i.disk_status) for disk_status
    ff.o(i.find_volume) refers to diskio.o(i.disk_initialize) for disk_initialize
    ff.o(i.find_volume) refers to ff.o(i.check_fs) for check_fs
    ff.o(i.find_volume) refers to ff.o(i.move_window) for move_window
    ff.o(i.find_volume) refers to ff.o(.data) for FatFs
    ff.o(i.fit_lfn) refers to ff.o(.constdata) for LfnOfs
    ff.o(i.follow_path) refers to ff.o(i.dir_sdi) for dir_sdi
    ff.o(i.follow_path) refers to ff.o(i.create_name) for create_name
    ff.o(i.follow_path) refers to ff.o(i.dir_find) for dir_find
    ff.o(i.follow_path) refers to ff.o(i.ld_clust) for ld_clust
    ff.o(i.gen_numname) refers to ff.o(i.mem_cpy) for mem_cpy
    ff.o(i.get_fat) refers to ff.o(i.move_window) for move_window
    ff.o(i.get_fileinfo) refers to ccsbcs.o(i.ff_convert) for ff_convert
    ff.o(i.move_window) refers to ff.o(i.sync_window) for sync_window
    ff.o(i.move_window) refers to diskio.o(i.disk_read) for disk_read
    ff.o(i.pick_lfn) refers to ff.o(.constdata) for LfnOfs
    ff.o(i.put_fat) refers to ff.o(i.move_window) for move_window
    ff.o(i.putc_bfd) refers to ff.o(i.f_write) for f_write
    ff.o(i.remove_chain) refers to ff.o(i.get_fat) for get_fat
    ff.o(i.remove_chain) refers to ff.o(i.put_fat) for put_fat
    ff.o(i.sync_fs) refers to ff.o(i.sync_window) for sync_window
    ff.o(i.sync_fs) refers to ff.o(i.mem_set) for mem_set
    ff.o(i.sync_fs) refers to diskio.o(i.disk_write) for disk_write
    ff.o(i.sync_fs) refers to diskio.o(i.disk_ioctl) for disk_ioctl
    ff.o(i.sync_window) refers to diskio.o(i.disk_write) for disk_write
    ff.o(i.validate) refers to diskio.o(i.disk_status) for disk_status
    extfunc.o(i.ef_FileList_iteration) refers to extfunc.o(i.ef_scanfiles) for ef_scanfiles
    extfunc.o(i.ef_FileList_iteration) refers to extfunc.o(i.ef_display_filelist) for ef_display_filelist
    extfunc.o(i.ef_FileList_iteration) refers to oled.o(i.oled_refresh) for oled_refresh
    extfunc.o(i.ef_FileList_iteration) refers to malloc.o(i.malloc) for malloc
    extfunc.o(i.ef_FileList_iteration) refers to printf2.o(i.__0sprintf$2) for __2sprintf
    extfunc.o(i.ef_FileList_iteration) refers to extfunc.o(i.ef_checkfile) for ef_checkfile
    extfunc.o(i.ef_FileList_iteration) refers to extfunc.o(i.ef_check_extension) for ef_check_extension
    extfunc.o(i.ef_FileList_iteration) refers to extfunc.o(i.ef_multimedia_txt) for ef_multimedia_txt
    extfunc.o(i.ef_FileList_iteration) refers to oled.o(i.oled_buffer_clear) for oled_buffer_clear
    extfunc.o(i.ef_FileList_iteration) refers to extfunc.o(i.ef_multimedia_pic_bin) for ef_multimedia_pic_bin
    extfunc.o(i.ef_FileList_iteration) refers to picturelib.o(i.ef_multimedia_pic_bmp) for ef_multimedia_pic_bmp
    extfunc.o(i.ef_FileList_iteration) refers to picturelib.o(i.ef_multimedia_pic_jpeg) for ef_multimedia_pic_jpeg
    extfunc.o(i.ef_FileList_iteration) refers to oled_mathpaint.o(i.oled_draw_rectangle) for oled_draw_rectangle
    extfunc.o(i.ef_FileList_iteration) refers to oled.o(i.oled_show_string) for oled_show_string
    extfunc.o(i.ef_FileList_iteration) refers to malloc.o(i.free) for free
    extfunc.o(i.ef_FileList_iteration) refers to extfunc.o(.data) for f_res
    extfunc.o(i.ef_FileList_iteration) refers to main.o(.bss) for ADC_Mem
    extfunc.o(i.ef_FileList_iteration) refers to main.o(.data) for adc_thrust
    extfunc.o(i.ef_FileList_iteration) refers to extfunc.o(.bss) for filename
    extfunc.o(i.ef_SD_GetGbkMatrix) refers to ff.o(i.f_open) for f_open
    extfunc.o(i.ef_SD_GetGbkMatrix) refers to ff.o(i.f_lseek) for f_lseek
    extfunc.o(i.ef_SD_GetGbkMatrix) refers to ff.o(i.f_read) for f_read
    extfunc.o(i.ef_SD_GetGbkMatrix) refers to ff.o(i.f_close) for f_close
    extfunc.o(i.ef_SD_GetGbkMatrix) refers to extfunc.o(.bss) for clmt
    extfunc.o(i.ef_check_extension) refers to strlen.o(.text) for strlen
    extfunc.o(i.ef_check_extension) refers to strstr.o(.text) for strstr
    extfunc.o(i.ef_checkfile) refers to ff.o(i.f_stat) for f_stat
    extfunc.o(i.ef_checkfile) refers to extfunc.o(.bss) for fno
    extfunc.o(i.ef_display_SDcapcity) refers to oled.o(i.oled_show_string) for oled_show_string
    extfunc.o(i.ef_display_SDcapcity) refers to extfunc.o(i.ef_getcapacity) for ef_getcapacity
    extfunc.o(i.ef_display_SDcapcity) refers to oled.o(i.oled_show_num_hide0) for oled_show_num_hide0
    extfunc.o(i.ef_display_SDcapcity) refers to extfunc.o(.data) for sd_size
    extfunc.o(i.ef_display_filelist) refers to oled.o(i.oled_buffer_clear) for oled_buffer_clear
    extfunc.o(i.ef_display_filelist) refers to oled.o(i.oled_show_string) for oled_show_string
    extfunc.o(i.ef_display_filelist) refers to oled_mathpaint.o(i.oled_draw_line) for oled_draw_line
    extfunc.o(i.ef_display_filelist) refers to oled.o(i.oled_show_num_hide0) for oled_show_num_hide0
    extfunc.o(i.ef_display_filelist) refers to extfunc.o(.data) for f_res
    extfunc.o(i.ef_display_filelist) refers to extfunc.o(.bss) for filename
    extfunc.o(i.ef_getcapacity) refers to ff.o(i.f_getfree) for f_getfree
    extfunc.o(i.ef_getcapacity) refers to sdio_sdcard.o(.bss) for SDCardInfo
    extfunc.o(i.ef_multimedia_pic_bin) refers to oled.o(i.oled_buffer_clear) for oled_buffer_clear
    extfunc.o(i.ef_multimedia_pic_bin) refers to ff.o(i.f_open) for f_open
    extfunc.o(i.ef_multimedia_pic_bin) refers to ff.o(i.f_read) for f_read
    extfunc.o(i.ef_multimedia_pic_bin) refers to oled.o(i.oled_show_string) for oled_show_string
    extfunc.o(i.ef_multimedia_pic_bin) refers to ff.o(i.f_close) for f_close
    extfunc.o(i.ef_multimedia_pic_bin) refers to ff.o(i.f_lseek) for f_lseek
    extfunc.o(i.ef_multimedia_pic_bin) refers to oled.o(i.oled_show_Bin_Array) for oled_show_Bin_Array
    extfunc.o(i.ef_multimedia_pic_bin) refers to oled.o(i.oled_refresh) for oled_refresh
    extfunc.o(i.ef_multimedia_pic_bin) refers to extfunc.o(.bss) for fp
    extfunc.o(i.ef_multimedia_pic_bin) refers to extfunc.o(.data) for f_res
    extfunc.o(i.ef_multimedia_pic_bin) refers to main.o(.data) for right_key_value
    extfunc.o(i.ef_multimedia_pic_bin) refers to oled.o(.bss) for Frame_Buffer
    extfunc.o(i.ef_multimedia_txt) refers to oled.o(i.oled_buffer_clear) for oled_buffer_clear
    extfunc.o(i.ef_multimedia_txt) refers to ff.o(i.f_open) for f_open
    extfunc.o(i.ef_multimedia_txt) refers to ff.o(i.f_read) for f_read
    extfunc.o(i.ef_multimedia_txt) refers to oled.o(i.oled_show_string) for oled_show_string
    extfunc.o(i.ef_multimedia_txt) refers to ff.o(i.f_close) for f_close
    extfunc.o(i.ef_multimedia_txt) refers to extfunc.o(.bss) for fp
    extfunc.o(i.ef_multimedia_txt) refers to extfunc.o(.data) for f_res
    extfunc.o(i.ef_multimedia_txt) refers to main.o(.bss) for str
    extfunc.o(i.ef_scanfiles) refers to ff.o(i.f_opendir) for f_opendir
    extfunc.o(i.ef_scanfiles) refers to ff.o(i.f_readdir) for f_readdir
    extfunc.o(i.ef_scanfiles) refers to strncpy.o(.text) for strncpy
    extfunc.o(i.ef_scanfiles) refers to ff.o(i.f_closedir) for f_closedir
    extfunc.o(i.ef_scanfiles) refers to extfunc.o(.bss) for lfn
    ccsbcs.o(i.ff_convert) refers to ccsbcs.o(.constdata) for Tbl
    ccsbcs.o(i.ff_wtoupper) refers to ccsbcs.o(.constdata) for lower
    picturelib.o(i.ef_multimedia_pic_bmp) refers to memseta.o(.text) for __aeabi_memclr4
    picturelib.o(i.ef_multimedia_pic_bmp) refers to oled.o(i.oled_buffer_clear) for oled_buffer_clear
    picturelib.o(i.ef_multimedia_pic_bmp) refers to ff.o(i.f_open) for f_open
    picturelib.o(i.ef_multimedia_pic_bmp) refers to ff.o(i.f_read) for f_read
    picturelib.o(i.ef_multimedia_pic_bmp) refers to oled.o(i.oled_show_string) for oled_show_string
    picturelib.o(i.ef_multimedia_pic_bmp) refers to ff.o(i.f_close) for f_close
    picturelib.o(i.ef_multimedia_pic_bmp) refers to malloc.o(i.malloc) for malloc
    picturelib.o(i.ef_multimedia_pic_bmp) refers to malloc.o(i.free) for free
    picturelib.o(i.ef_multimedia_pic_bmp) refers to oled.o(i.oled_refresh) for oled_refresh
    picturelib.o(i.ef_multimedia_pic_bmp) refers to extfunc.o(.bss) for fp
    picturelib.o(i.ef_multimedia_pic_bmp) refers to extfunc.o(.data) for f_res
    picturelib.o(i.ef_multimedia_pic_bmp) refers to oled.o(.bss) for Frame_Buffer
    picturelib.o(i.ef_multimedia_pic_jpeg) refers to oled.o(i.oled_buffer_clear) for oled_buffer_clear
    picturelib.o(i.ef_multimedia_pic_jpeg) refers to ff.o(i.f_open) for f_open
    picturelib.o(i.ef_multimedia_pic_jpeg) refers to fmt_jpeg.o(i.rd_SOF0_2get_size) for rd_SOF0_2get_size
    picturelib.o(i.ef_multimedia_pic_jpeg) refers to oled.o(i.oled_show_string) for oled_show_string
    picturelib.o(i.ef_multimedia_pic_jpeg) refers to memseta.o(.text) for __aeabi_memclr4
    picturelib.o(i.ef_multimedia_pic_jpeg) refers to fmt_jpeg.o(i.Dec_JPEG_to_YuvRgb) for Dec_JPEG_to_YuvRgb
    picturelib.o(i.ef_multimedia_pic_jpeg) refers to oled.o(i.oled_refresh) for oled_refresh
    picturelib.o(i.ef_multimedia_pic_jpeg) refers to extfunc.o(.bss) for fp
    picturelib.o(i.ef_multimedia_pic_jpeg) refers to extfunc.o(.data) for f_res
    fmt_jpeg.o(i.Build_Huffman_Table_SD) refers to ff.o(i.f_open) for f_open
    fmt_jpeg.o(i.Build_Huffman_Table_SD) refers to ff.o(i.f_write) for f_write
    fmt_jpeg.o(i.Build_Huffman_Table_SD) refers to ff.o(i.f_lseek) for f_lseek
    fmt_jpeg.o(i.Build_Huffman_Table_SD) refers to ff.o(i.f_close) for f_close
    fmt_jpeg.o(i.Build_Huffman_Table_SD) refers to oled.o(i.oled_show_string) for oled_show_string
    fmt_jpeg.o(i.Build_Huffman_Table_SD) refers to oled.o(i.oled_show_num_every0) for oled_show_num_every0
    fmt_jpeg.o(i.Build_Huffman_Table_SD) refers to oled.o(i.oled_refresh) for oled_refresh
    fmt_jpeg.o(i.Build_Huffman_Table_SD) refers to extfunc.o(.data) for f_res
    fmt_jpeg.o(i.Dec_JPEG_to_YuvRgb) refers to ff.o(i.f_read) for f_read
    fmt_jpeg.o(i.Dec_JPEG_to_YuvRgb) refers to fmt_jpeg.o(i.rd_BigEnd16) for rd_BigEnd16
    fmt_jpeg.o(i.Dec_JPEG_to_YuvRgb) refers to oled.o(i.oled_show_string) for oled_show_string
    fmt_jpeg.o(i.Dec_JPEG_to_YuvRgb) refers to oled.o(i.oled_refresh) for oled_refresh
    fmt_jpeg.o(i.Dec_JPEG_to_YuvRgb) refers to ff.o(i.f_lseek) for f_lseek
    fmt_jpeg.o(i.Dec_JPEG_to_YuvRgb) refers to extfunc.o(.data) for br
    fmt_jpeg.o(i.Dec_JPEG_to_YuvRgb) refers to fmt_jpeg.o(i.sum_arr) for sum_arr
    fmt_jpeg.o(i.Dec_JPEG_to_YuvRgb) refers to malloc.o(i.malloc) for malloc
    fmt_jpeg.o(i.Dec_JPEG_to_YuvRgb) refers to memseta.o(.text) for __aeabi_memclr4
    fmt_jpeg.o(i.Dec_JPEG_to_YuvRgb) refers to fmt_jpeg.o(i.Build_Huffman_Table_SD) for Build_Huffman_Table_SD
    fmt_jpeg.o(i.Dec_JPEG_to_YuvRgb) refers to malloc.o(i.free) for free
    fmt_jpeg.o(i.Dec_JPEG_to_YuvRgb) refers to oled.o(i.oled_clear) for oled_clear
    fmt_jpeg.o(i.Dec_JPEG_to_YuvRgb) refers to fmt_jpeg.o(i.rd_restore_HuffBit_RLE_Mat) for rd_restore_HuffBit_RLE_Mat
    fmt_jpeg.o(i.Dec_JPEG_to_YuvRgb) refers to fmt_jpeg.o(i.rd_restore_InvQuantize) for rd_restore_InvQuantize
    fmt_jpeg.o(i.Dec_JPEG_to_YuvRgb) refers to fmt_jpeg.o(i.Inverse_DCT) for Inverse_DCT
    fmt_jpeg.o(i.Dec_JPEG_to_YuvRgb) refers to dadd.o(.text) for __aeabi_dadd
    fmt_jpeg.o(i.Dec_JPEG_to_YuvRgb) refers to fmt_jpeg.o(i.round_double) for round_double
    fmt_jpeg.o(i.Dec_JPEG_to_YuvRgb) refers to fmt_jpeg.o(.bss) for MCU_Y
    fmt_jpeg.o(i.Dec_JPEG_to_YuvRgb) refers to fmt_jpeg.o(i.rgb888_to_565) for rgb888_to_565
    fmt_jpeg.o(i.Dec_JPEG_to_YuvRgb) refers to oled.o(.bss) for Frame_Buffer
    fmt_jpeg.o(i.Inverse_DCT) refers to memseta.o(.text) for __aeabi_memclr4
    fmt_jpeg.o(i.Inverse_DCT) refers to dmul.o(.text) for __aeabi_dmul
    fmt_jpeg.o(i.Inverse_DCT) refers to dadd.o(.text) for __aeabi_dadd
    fmt_jpeg.o(i.Inverse_DCT) refers to fmt_jpeg.o(.constdata) for DCT_T
    fmt_jpeg.o(i.rd_SOF0_2get_size) refers to ff.o(i.f_read) for f_read
    fmt_jpeg.o(i.rd_SOF0_2get_size) refers to fmt_jpeg.o(i.rd_BigEnd16) for rd_BigEnd16
    fmt_jpeg.o(i.rd_SOF0_2get_size) refers to ff.o(i.f_lseek) for f_lseek
    fmt_jpeg.o(i.rd_SOF0_2get_size) refers to extfunc.o(.data) for br
    fmt_jpeg.o(i.rd_restore_HuffBit_RLE_Mat) refers to ff.o(i.f_open) for f_open
    fmt_jpeg.o(i.rd_restore_HuffBit_RLE_Mat) refers to oled.o(i.oled_show_string) for oled_show_string
    fmt_jpeg.o(i.rd_restore_HuffBit_RLE_Mat) refers to oled.o(i.oled_refresh) for oled_refresh
    fmt_jpeg.o(i.rd_restore_HuffBit_RLE_Mat) refers to ff.o(i.f_read) for f_read
    fmt_jpeg.o(i.rd_restore_HuffBit_RLE_Mat) refers to ff.o(i.f_lseek) for f_lseek
    fmt_jpeg.o(i.rd_restore_HuffBit_RLE_Mat) refers to ff.o(i.f_close) for f_close
    fmt_jpeg.o(i.rd_restore_HuffBit_RLE_Mat) refers to extfunc.o(.data) for f_res
    fmt_jpeg.o(i.rd_restore_HuffBit_RLE_Mat) refers to fmt_jpeg.o(.data) for mmask
    fmt_jpeg.o(i.rd_restore_InvQuantize) refers to dflti.o(.text) for __aeabi_i2d
    fmt_jpeg.o(i.rd_restore_InvQuantize) refers to fmt_jpeg.o(.constdata) for RLE_ZigZag
    usb_core.o(i.DataStageIn) refers to usb_regs.o(i.GetEPTxAddr) for GetEPTxAddr
    usb_core.o(i.DataStageIn) refers to usb_mem.o(i.UserToPMABufferCopy) for UserToPMABufferCopy
    usb_core.o(i.DataStageIn) refers to usb_regs.o(i.SetEPTxCount) for SetEPTxCount
    usb_core.o(i.DataStageIn) refers to usb_init.o(.data) for pInformation
    usb_core.o(i.DataStageIn) refers to usb_core.o(.data) for Data_Mul_MaxPacketSize
    usb_core.o(i.DataStageIn) refers to usb_int.o(.data) for SaveTState
    usb_core.o(i.DataStageOut) refers to usb_regs.o(i.GetEPRxAddr) for GetEPRxAddr
    usb_core.o(i.DataStageOut) refers to usb_mem.o(i.PMAToUserBufferCopy) for PMAToUserBufferCopy
    usb_core.o(i.DataStageOut) refers to usb_regs.o(i.SetEPTxCount) for SetEPTxCount
    usb_core.o(i.DataStageOut) refers to usb_init.o(.data) for pInformation
    usb_core.o(i.DataStageOut) refers to usb_int.o(.data) for SaveRState
    usb_core.o(i.Data_Setup0) refers to usb_core.o(i.DataStageIn) for DataStageIn
    usb_core.o(i.Data_Setup0) refers to usb_init.o(.data) for pInformation
    usb_core.o(i.Data_Setup0) refers to usb_core.o(i.Standard_GetStatus) for Standard_GetStatus
    usb_core.o(i.Data_Setup0) refers to usb_prop.o(.data) for Device_Table
    usb_core.o(i.Data_Setup0) refers to usb_core.o(i.Standard_GetConfiguration) for Standard_GetConfiguration
    usb_core.o(i.Data_Setup0) refers to usb_core.o(i.Standard_GetInterface) for Standard_GetInterface
    usb_core.o(i.Data_Setup0) refers to usb_core.o(.data) for Data_Mul_MaxPacketSize
    usb_core.o(i.Data_Setup0) refers to usb_int.o(.data) for SaveRState
    usb_core.o(i.In0_Process) refers to usb_core.o(i.DataStageIn) for DataStageIn
    usb_core.o(i.In0_Process) refers to usb_core.o(i.SetDeviceAddress) for SetDeviceAddress
    usb_core.o(i.In0_Process) refers to usb_core.o(i.Post0_Process) for Post0_Process
    usb_core.o(i.In0_Process) refers to usb_init.o(.data) for pInformation
    usb_core.o(i.NoData_Setup0) refers to usb_core.o(i.Standard_SetConfiguration) for Standard_SetConfiguration
    usb_core.o(i.NoData_Setup0) refers to usb_core.o(i.Standard_SetDeviceFeature) for Standard_SetDeviceFeature
    usb_core.o(i.NoData_Setup0) refers to usb_core.o(i.Standard_ClearFeature) for Standard_ClearFeature
    usb_core.o(i.NoData_Setup0) refers to usb_core.o(i.Standard_SetInterface) for Standard_SetInterface
    usb_core.o(i.NoData_Setup0) refers to usb_core.o(i.Standard_SetEndPointFeature) for Standard_SetEndPointFeature
    usb_core.o(i.NoData_Setup0) refers to usb_init.o(.data) for pInformation
    usb_core.o(i.NoData_Setup0) refers to usb_int.o(.data) for SaveTState
    usb_core.o(i.Out0_Process) refers to usb_core.o(i.DataStageOut) for DataStageOut
    usb_core.o(i.Out0_Process) refers to usb_core.o(i.Post0_Process) for Post0_Process
    usb_core.o(i.Out0_Process) refers to usb_init.o(.data) for pInformation
    usb_core.o(i.Post0_Process) refers to usb_regs.o(i.SetEPRxCount) for SetEPRxCount
    usb_core.o(i.Post0_Process) refers to usb_prop.o(.data) for Device_Property
    usb_core.o(i.Post0_Process) refers to usb_init.o(.data) for pInformation
    usb_core.o(i.Post0_Process) refers to usb_int.o(.data) for SaveRState
    usb_core.o(i.SetDeviceAddress) refers to usb_prop.o(.data) for Device_Table
    usb_core.o(i.Setup0_Process) refers to usb_regs.o(i.ByteSwap) for ByteSwap
    usb_core.o(i.Setup0_Process) refers to usb_core.o(i.NoData_Setup0) for NoData_Setup0
    usb_core.o(i.Setup0_Process) refers to usb_core.o(i.Data_Setup0) for Data_Setup0
    usb_core.o(i.Setup0_Process) refers to usb_core.o(i.Post0_Process) for Post0_Process
    usb_core.o(i.Setup0_Process) refers to usb_init.o(.data) for pInformation
    usb_core.o(i.Standard_ClearFeature) refers to usb_regs.o(i.ClearDTOG_TX) for ClearDTOG_TX
    usb_core.o(i.Standard_ClearFeature) refers to usb_regs.o(i.SetEPTxStatus) for SetEPTxStatus
    usb_core.o(i.Standard_ClearFeature) refers to usb_regs.o(i.SetEPRxCount) for SetEPRxCount
    usb_core.o(i.Standard_ClearFeature) refers to usb_regs.o(i.ClearDTOG_RX) for ClearDTOG_RX
    usb_core.o(i.Standard_ClearFeature) refers to usb_init.o(.data) for pInformation
    usb_core.o(i.Standard_ClearFeature) refers to usb_prop.o(.data) for Device_Table
    usb_core.o(i.Standard_GetConfiguration) refers to usb_init.o(.data) for pInformation
    usb_core.o(i.Standard_GetDescriptorData) refers to usb_init.o(.data) for pInformation
    usb_core.o(i.Standard_GetInterface) refers to usb_init.o(.data) for pInformation
    usb_core.o(i.Standard_GetStatus) refers to usb_init.o(.data) for pInformation
    usb_core.o(i.Standard_GetStatus) refers to usb_core.o(.data) for StatusInfo
    usb_core.o(i.Standard_SetConfiguration) refers to usb_init.o(.data) for pInformation
    usb_core.o(i.Standard_SetConfiguration) refers to usb_prop.o(.data) for Device_Table
    usb_core.o(i.Standard_SetDeviceFeature) refers to usb_init.o(.data) for pInformation
    usb_core.o(i.Standard_SetEndPointFeature) refers to usb_init.o(.data) for pInformation
    usb_core.o(i.Standard_SetEndPointFeature) refers to usb_prop.o(.data) for Device_Table
    usb_core.o(i.Standard_SetInterface) refers to usb_init.o(.data) for pInformation
    usb_init.o(i.USB_Init) refers to usb_init.o(.bss) for Device_Info
    usb_init.o(i.USB_Init) refers to usb_init.o(.data) for pInformation
    usb_init.o(i.USB_Init) refers to usb_prop.o(.data) for Device_Property
    usb_int.o(i.CTR_HP) refers to usb_istr.o(.data) for wIstr
    usb_int.o(i.CTR_HP) refers to usb_init.o(.data) for EPindex
    usb_int.o(i.CTR_LP) refers to usb_core.o(i.In0_Process) for In0_Process
    usb_int.o(i.CTR_LP) refers to usb_core.o(i.Setup0_Process) for Setup0_Process
    usb_int.o(i.CTR_LP) refers to usb_core.o(i.Out0_Process) for Out0_Process
    usb_int.o(i.CTR_LP) refers to usb_istr.o(.data) for wIstr
    usb_int.o(i.CTR_LP) refers to usb_init.o(.data) for EPindex
    usb_int.o(i.CTR_LP) refers to usb_int.o(.data) for SaveRState
    usb_regs.o(i.SetDouBleBuffEPStall) refers to usb_regs.o(i.GetENDPOINT) for GetENDPOINT
    usb_sil.o(i.USB_SIL_Init) refers to usb_init.o(.data) for wInterrupt_Mask
    usb_sil.o(i.USB_SIL_Read) refers to usb_regs.o(i.GetEPRxCount) for GetEPRxCount
    usb_sil.o(i.USB_SIL_Read) refers to usb_regs.o(i.GetEPRxAddr) for GetEPRxAddr
    usb_sil.o(i.USB_SIL_Read) refers to usb_mem.o(i.PMAToUserBufferCopy) for PMAToUserBufferCopy
    usb_sil.o(i.USB_SIL_Write) refers to usb_regs.o(i.GetEPTxAddr) for GetEPTxAddr
    usb_sil.o(i.USB_SIL_Write) refers to usb_mem.o(i.UserToPMABufferCopy) for UserToPMABufferCopy
    usb_sil.o(i.USB_SIL_Write) refers to usb_regs.o(i.SetEPTxCount) for SetEPTxCount
    hw_config.o(i.Enter_LowPowerMode) refers to usb_pwr.o(.data) for bDeviceState
    hw_config.o(i.Get_SerialNum) refers to hw_config.o(i.IntToUnicode) for IntToUnicode
    hw_config.o(i.Get_SerialNum) refers to usb_desc.o(.data) for Joystick_StringSerial
    hw_config.o(i.Joystick_Send) refers to usb_sil.o(i.USB_SIL_Write) for USB_SIL_Write
    hw_config.o(i.Joystick_Send) refers to usb_regs.o(i.SetEPTxValid) for SetEPTxValid
    hw_config.o(i.Leave_LowPowerMode) refers to usb_init.o(.bss) for Device_Info
    hw_config.o(i.Leave_LowPowerMode) refers to usb_pwr.o(.data) for bDeviceState
    hw_config.o(i.Set_USBClock) refers to stm32f10x_rcc.o(i.RCC_USBCLKConfig) for RCC_USBCLKConfig
    hw_config.o(i.Set_USBClock) refers to stm32f10x_rcc.o(i.RCC_APB1PeriphClockCmd) for RCC_APB1PeriphClockCmd
    hw_config.o(i.USB_Interrupts_Config) refers to stm32f10x_exti.o(i.EXTI_ClearITPendingBit) for EXTI_ClearITPendingBit
    hw_config.o(i.USB_Interrupts_Config) refers to stm32f10x_exti.o(i.EXTI_Init) for EXTI_Init
    hw_config.o(i.USB_Interrupts_Config) refers to misc.o(i.NVIC_Init) for NVIC_Init
    hw_config.o(i.USB_Port_Set) refers to stm32f10x_rcc.o(i.RCC_APB2PeriphClockCmd) for RCC_APB2PeriphClockCmd
    usb_endp.o(i.EP1_IN_Callback) refers to hw_config.o(.data) for PrevXferComplete
    usb_istr.o(i.USB_Istr) refers to usb_int.o(i.CTR_LP) for CTR_LP
    usb_istr.o(i.USB_Istr) refers to usb_pwr.o(i.Resume) for Resume
    usb_istr.o(i.USB_Istr) refers to usb_pwr.o(i.Suspend) for Suspend
    usb_istr.o(i.USB_Istr) refers to usb_istr.o(.data) for wIstr
    usb_istr.o(i.USB_Istr) refers to usb_init.o(.data) for wInterrupt_Mask
    usb_istr.o(i.USB_Istr) refers to usb_prop.o(.data) for Device_Property
    usb_istr.o(i.USB_Istr) refers to usb_pwr.o(.data) for fSuspendEnabled
    usb_istr.o(.data) refers to usb_endp.o(i.EP1_IN_Callback) for EP1_IN_Callback
    usb_istr.o(.data) refers to usb_core.o(i.NOP_Process) for NOP_Process
    usb_prop.o(i.Joystick_Data_Setup) refers to usb_init.o(.data) for pInformation
    usb_prop.o(i.Joystick_Data_Setup) refers to usb_prop.o(i.Joystick_GetReportDescriptor) for Joystick_GetReportDescriptor
    usb_prop.o(i.Joystick_Data_Setup) refers to usb_prop.o(i.Joystick_GetHIDDescriptor) for Joystick_GetHIDDescriptor
    usb_prop.o(i.Joystick_Data_Setup) refers to usb_prop.o(i.Joystick_GetProtocolValue) for Joystick_GetProtocolValue
    usb_prop.o(i.Joystick_GetConfigDescriptor) refers to usb_core.o(i.Standard_GetDescriptorData) for Standard_GetDescriptorData
    usb_prop.o(i.Joystick_GetConfigDescriptor) refers to usb_prop.o(.data) for Config_Descriptor
    usb_prop.o(i.Joystick_GetDeviceDescriptor) refers to usb_core.o(i.Standard_GetDescriptorData) for Standard_GetDescriptorData
    usb_prop.o(i.Joystick_GetDeviceDescriptor) refers to usb_prop.o(.data) for Device_Descriptor
    usb_prop.o(i.Joystick_GetHIDDescriptor) refers to usb_core.o(i.Standard_GetDescriptorData) for Standard_GetDescriptorData
    usb_prop.o(i.Joystick_GetHIDDescriptor) refers to usb_prop.o(.data) for Mouse_Hid_Descriptor
    usb_prop.o(i.Joystick_GetProtocolValue) refers to usb_init.o(.data) for pInformation
    usb_prop.o(i.Joystick_GetProtocolValue) refers to usb_prop.o(.data) for ProtocolValue
    usb_prop.o(i.Joystick_GetReportDescriptor) refers to usb_core.o(i.Standard_GetDescriptorData) for Standard_GetDescriptorData
    usb_prop.o(i.Joystick_GetReportDescriptor) refers to usb_prop.o(.data) for Joystick_Report_Descriptor
    usb_prop.o(i.Joystick_GetStringDescriptor) refers to usb_core.o(i.Standard_GetDescriptorData) for Standard_GetDescriptorData
    usb_prop.o(i.Joystick_GetStringDescriptor) refers to usb_init.o(.data) for pInformation
    usb_prop.o(i.Joystick_GetStringDescriptor) refers to usb_prop.o(.data) for String_Descriptor
    usb_prop.o(i.Joystick_NoData_Setup) refers to usb_prop.o(i.Joystick_SetProtocol) for Joystick_SetProtocol
    usb_prop.o(i.Joystick_NoData_Setup) refers to usb_init.o(.data) for pInformation
    usb_prop.o(i.Joystick_Reset) refers to usb_regs.o(i.SetBTABLE) for SetBTABLE
    usb_prop.o(i.Joystick_Reset) refers to usb_regs.o(i.SetEPType) for SetEPType
    usb_prop.o(i.Joystick_Reset) refers to usb_regs.o(i.SetEPTxStatus) for SetEPTxStatus
    usb_prop.o(i.Joystick_Reset) refers to usb_regs.o(i.SetEPRxAddr) for SetEPRxAddr
    usb_prop.o(i.Joystick_Reset) refers to usb_regs.o(i.SetEPTxAddr) for SetEPTxAddr
    usb_prop.o(i.Joystick_Reset) refers to usb_regs.o(i.Clear_Status_Out) for Clear_Status_Out
    usb_prop.o(i.Joystick_Reset) refers to usb_regs.o(i.SetEPRxCount) for SetEPRxCount
    usb_prop.o(i.Joystick_Reset) refers to usb_regs.o(i.SetEPRxValid) for SetEPRxValid
    usb_prop.o(i.Joystick_Reset) refers to usb_regs.o(i.SetEPTxCount) for SetEPTxCount
    usb_prop.o(i.Joystick_Reset) refers to usb_regs.o(i.SetEPRxStatus) for SetEPRxStatus
    usb_prop.o(i.Joystick_Reset) refers to usb_core.o(i.SetDeviceAddress) for SetDeviceAddress
    usb_prop.o(i.Joystick_Reset) refers to usb_init.o(.data) for pInformation
    usb_prop.o(i.Joystick_Reset) refers to usb_desc.o(.constdata) for Joystick_ConfigDescriptor
    usb_prop.o(i.Joystick_Reset) refers to usb_prop.o(.data) for Device_Property
    usb_prop.o(i.Joystick_Reset) refers to usb_pwr.o(.data) for bDeviceState
    usb_prop.o(i.Joystick_SetConfiguration) refers to usb_init.o(.bss) for Device_Info
    usb_prop.o(i.Joystick_SetConfiguration) refers to usb_pwr.o(.data) for bDeviceState
    usb_prop.o(i.Joystick_SetDeviceAddress) refers to usb_pwr.o(.data) for bDeviceState
    usb_prop.o(i.Joystick_SetProtocol) refers to usb_init.o(.data) for pInformation
    usb_prop.o(i.Joystick_SetProtocol) refers to usb_prop.o(.data) for ProtocolValue
    usb_prop.o(i.Joystick_init) refers to hw_config.o(i.Get_SerialNum) for Get_SerialNum
    usb_prop.o(i.Joystick_init) refers to usb_pwr.o(i.PowerOn) for PowerOn
    usb_prop.o(i.Joystick_init) refers to usb_sil.o(i.USB_SIL_Init) for USB_SIL_Init
    usb_prop.o(i.Joystick_init) refers to usb_init.o(.data) for pInformation
    usb_prop.o(i.Joystick_init) refers to usb_pwr.o(.data) for bDeviceState
    usb_prop.o(.data) refers to usb_prop.o(i.Joystick_init) for Joystick_init
    usb_prop.o(.data) refers to usb_prop.o(i.Joystick_Reset) for Joystick_Reset
    usb_prop.o(.data) refers to usb_prop.o(i.Joystick_Status_In) for Joystick_Status_In
    usb_prop.o(.data) refers to usb_prop.o(i.Joystick_Status_Out) for Joystick_Status_Out
    usb_prop.o(.data) refers to usb_prop.o(i.Joystick_Data_Setup) for Joystick_Data_Setup
    usb_prop.o(.data) refers to usb_prop.o(i.Joystick_NoData_Setup) for Joystick_NoData_Setup
    usb_prop.o(.data) refers to usb_prop.o(i.Joystick_Get_Interface_Setting) for Joystick_Get_Interface_Setting
    usb_prop.o(.data) refers to usb_prop.o(i.Joystick_GetDeviceDescriptor) for Joystick_GetDeviceDescriptor
    usb_prop.o(.data) refers to usb_prop.o(i.Joystick_GetConfigDescriptor) for Joystick_GetConfigDescriptor
    usb_prop.o(.data) refers to usb_prop.o(i.Joystick_GetStringDescriptor) for Joystick_GetStringDescriptor
    usb_prop.o(.data) refers to usb_core.o(i.NOP_Process) for NOP_Process
    usb_prop.o(.data) refers to usb_prop.o(i.Joystick_SetConfiguration) for Joystick_SetConfiguration
    usb_prop.o(.data) refers to usb_prop.o(i.Joystick_SetDeviceAddress) for Joystick_SetDeviceAddress
    usb_prop.o(.data) refers to usb_desc.o(.constdata) for Joystick_DeviceDescriptor
    usb_prop.o(.data) refers to usb_desc.o(.data) for Joystick_StringSerial
    usb_pwr.o(i.PowerOff) refers to hw_config.o(i.USB_Cable_Config) for USB_Cable_Config
    usb_pwr.o(i.PowerOn) refers to hw_config.o(i.USB_Cable_Config) for USB_Cable_Config
    usb_pwr.o(i.PowerOn) refers to usb_init.o(.data) for wInterrupt_Mask
    usb_pwr.o(i.Resume) refers to usb_pwr.o(i.Resume_Init) for Resume_Init
    usb_pwr.o(i.Resume) refers to usb_pwr.o(.data) for ResumeS
    usb_pwr.o(i.Resume_Init) refers to hw_config.o(i.Leave_LowPowerMode) for Leave_LowPowerMode
    usb_pwr.o(i.Suspend) refers to hw_config.o(i.Enter_LowPowerMode) for Enter_LowPowerMode
    usb_pwr.o(i.Suspend) refers to usb_pwr.o(.bss) for EP
    delay.o(i.delay_init) refers to misc.o(i.SysTick_CLKSourceConfig) for SysTick_CLKSourceConfig
    delay.o(i.delay_init) refers to system_stm32f10x.o(.data) for SystemCoreClock
    delay.o(i.delay_init) refers to delay.o(.data) for fac_us
    delay.o(i.delay_ms) refers to delay.o(.data) for fac_ms
    delay.o(i.delay_us) refers to delay.o(.data) for fac_us
    usart.o(i.USART1_IRQHandler) refers to stm32f10x_usart.o(i.USART_GetITStatus) for USART_GetITStatus
    usart.o(i.USART1_IRQHandler) refers to stm32f10x_usart.o(i.USART_ReceiveData) for USART_ReceiveData
    usart.o(i.USART1_IRQHandler) refers to usart.o(.data) for USART_RX_STA
    usart.o(i.USART1_IRQHandler) refers to usart.o(.bss) for USART_RX_BUF
    usart.o(i.uart_init) refers to stm32f10x_rcc.o(i.RCC_APB2PeriphClockCmd) for RCC_APB2PeriphClockCmd
    usart.o(i.uart_init) refers to stm32f10x_gpio.o(i.GPIO_Init) for GPIO_Init
    usart.o(i.uart_init) refers to misc.o(i.NVIC_Init) for NVIC_Init
    usart.o(i.uart_init) refers to stm32f10x_usart.o(i.USART_Init) for USART_Init
    usart.o(i.uart_init) refers to stm32f10x_usart.o(i.USART_ITConfig) for USART_ITConfig
    usart.o(i.uart_init) refers to stm32f10x_usart.o(i.USART_Cmd) for USART_Cmd
    startup_stm32f10x_hd.o(RESET) refers to startup_stm32f10x_hd.o(STACK) for __initial_sp
    startup_stm32f10x_hd.o(RESET) refers to startup_stm32f10x_hd.o(.text) for Reset_Handler
    startup_stm32f10x_hd.o(RESET) refers to stm32f10x_it.o(i.NMI_Handler) for NMI_Handler
    startup_stm32f10x_hd.o(RESET) refers to stm32f10x_it.o(i.HardFault_Handler) for HardFault_Handler
    startup_stm32f10x_hd.o(RESET) refers to stm32f10x_it.o(i.MemManage_Handler) for MemManage_Handler
    startup_stm32f10x_hd.o(RESET) refers to stm32f10x_it.o(i.BusFault_Handler) for BusFault_Handler
    startup_stm32f10x_hd.o(RESET) refers to stm32f10x_it.o(i.UsageFault_Handler) for UsageFault_Handler
    startup_stm32f10x_hd.o(RESET) refers to stm32f10x_it.o(i.SVC_Handler) for SVC_Handler
    startup_stm32f10x_hd.o(RESET) refers to stm32f10x_it.o(i.DebugMon_Handler) for DebugMon_Handler
    startup_stm32f10x_hd.o(RESET) refers to stm32f10x_it.o(i.PendSV_Handler) for PendSV_Handler
    startup_stm32f10x_hd.o(RESET) refers to stm32f10x_it.o(i.SysTick_Handler) for SysTick_Handler
    startup_stm32f10x_hd.o(RESET) refers to irqhandler.o(i.EXTI3_IRQHandler) for EXTI3_IRQHandler
    startup_stm32f10x_hd.o(RESET) refers to si24r1.o(i.EXTI4_IRQHandler) for EXTI4_IRQHandler
    startup_stm32f10x_hd.o(RESET) refers to irqhandler.o(i.USB_LP_CAN1_RX0_IRQHandler) for USB_LP_CAN1_RX0_IRQHandler
    startup_stm32f10x_hd.o(RESET) refers to irqhandler.o(i.EXTI9_5_IRQHandler) for EXTI9_5_IRQHandler
    startup_stm32f10x_hd.o(RESET) refers to irqhandler.o(i.TIM3_IRQHandler) for TIM3_IRQHandler
    startup_stm32f10x_hd.o(RESET) refers to usart.o(i.USART1_IRQHandler) for USART1_IRQHandler
    startup_stm32f10x_hd.o(RESET) refers to irqhandler.o(i.EXTI15_10_IRQHandler) for EXTI15_10_IRQHandler
    startup_stm32f10x_hd.o(RESET) refers to irqhandler.o(i.USBWakeUp_IRQHandler) for USBWakeUp_IRQHandler
    startup_stm32f10x_hd.o(RESET) refers to irqhandler.o(i.SDIO_IRQHandler) for SDIO_IRQHandler
    startup_stm32f10x_hd.o(.text) refers to system_stm32f10x.o(i.SystemInit) for SystemInit
    startup_stm32f10x_hd.o(.text) refers to entry.o(.ARM.Collect$$$$00000000) for __main
    stm32f10x_adc.o(i.ADC_DeInit) refers to stm32f10x_rcc.o(i.RCC_APB2PeriphResetCmd) for RCC_APB2PeriphResetCmd
    stm32f10x_gpio.o(i.GPIO_AFIODeInit) refers to stm32f10x_rcc.o(i.RCC_APB2PeriphResetCmd) for RCC_APB2PeriphResetCmd
    stm32f10x_gpio.o(i.GPIO_DeInit) refers to stm32f10x_rcc.o(i.RCC_APB2PeriphResetCmd) for RCC_APB2PeriphResetCmd
    stm32f10x_rcc.o(i.RCC_GetClocksFreq) refers to stm32f10x_rcc.o(.data) for APBAHBPrescTable
    stm32f10x_rcc.o(i.RCC_WaitForHSEStartUp) refers to stm32f10x_rcc.o(i.RCC_GetFlagStatus) for RCC_GetFlagStatus
    stm32f10x_usart.o(i.USART_DeInit) refers to stm32f10x_rcc.o(i.RCC_APB2PeriphResetCmd) for RCC_APB2PeriphResetCmd
    stm32f10x_usart.o(i.USART_DeInit) refers to stm32f10x_rcc.o(i.RCC_APB1PeriphResetCmd) for RCC_APB1PeriphResetCmd
    stm32f10x_usart.o(i.USART_Init) refers to stm32f10x_rcc.o(i.RCC_GetClocksFreq) for RCC_GetClocksFreq
    stm32f10x_spi.o(i.I2S_Init) refers to stm32f10x_rcc.o(i.RCC_GetClocksFreq) for RCC_GetClocksFreq
    stm32f10x_spi.o(i.SPI_I2S_DeInit) refers to stm32f10x_rcc.o(i.RCC_APB2PeriphResetCmd) for RCC_APB2PeriphResetCmd
    stm32f10x_spi.o(i.SPI_I2S_DeInit) refers to stm32f10x_rcc.o(i.RCC_APB1PeriphResetCmd) for RCC_APB1PeriphResetCmd
    stm32f10x_tim.o(i.TIM_DeInit) refers to stm32f10x_rcc.o(i.RCC_APB2PeriphResetCmd) for RCC_APB2PeriphResetCmd
    stm32f10x_tim.o(i.TIM_DeInit) refers to stm32f10x_rcc.o(i.RCC_APB1PeriphResetCmd) for RCC_APB1PeriphResetCmd
    stm32f10x_tim.o(i.TIM_ETRClockMode1Config) refers to stm32f10x_tim.o(i.TIM_ETRConfig) for TIM_ETRConfig
    stm32f10x_tim.o(i.TIM_ETRClockMode2Config) refers to stm32f10x_tim.o(i.TIM_ETRConfig) for TIM_ETRConfig
    stm32f10x_tim.o(i.TIM_ICInit) refers to stm32f10x_tim.o(i.TI1_Config) for TI1_Config
    stm32f10x_tim.o(i.TIM_ICInit) refers to stm32f10x_tim.o(i.TIM_SetIC1Prescaler) for TIM_SetIC1Prescaler
    stm32f10x_tim.o(i.TIM_ICInit) refers to stm32f10x_tim.o(i.TI2_Config) for TI2_Config
    stm32f10x_tim.o(i.TIM_ICInit) refers to stm32f10x_tim.o(i.TIM_SetIC2Prescaler) for TIM_SetIC2Prescaler
    stm32f10x_tim.o(i.TIM_ICInit) refers to stm32f10x_tim.o(i.TI3_Config) for TI3_Config
    stm32f10x_tim.o(i.TIM_ICInit) refers to stm32f10x_tim.o(i.TIM_SetIC3Prescaler) for TIM_SetIC3Prescaler
    stm32f10x_tim.o(i.TIM_ICInit) refers to stm32f10x_tim.o(i.TI4_Config) for TI4_Config
    stm32f10x_tim.o(i.TIM_ICInit) refers to stm32f10x_tim.o(i.TIM_SetIC4Prescaler) for TIM_SetIC4Prescaler
    stm32f10x_tim.o(i.TIM_ITRxExternalClockConfig) refers to stm32f10x_tim.o(i.TIM_SelectInputTrigger) for TIM_SelectInputTrigger
    stm32f10x_tim.o(i.TIM_PWMIConfig) refers to stm32f10x_tim.o(i.TI1_Config) for TI1_Config
    stm32f10x_tim.o(i.TIM_PWMIConfig) refers to stm32f10x_tim.o(i.TIM_SetIC1Prescaler) for TIM_SetIC1Prescaler
    stm32f10x_tim.o(i.TIM_PWMIConfig) refers to stm32f10x_tim.o(i.TI2_Config) for TI2_Config
    stm32f10x_tim.o(i.TIM_PWMIConfig) refers to stm32f10x_tim.o(i.TIM_SetIC2Prescaler) for TIM_SetIC2Prescaler
    stm32f10x_tim.o(i.TIM_TIxExternalClockConfig) refers to stm32f10x_tim.o(i.TI2_Config) for TI2_Config
    stm32f10x_tim.o(i.TIM_TIxExternalClockConfig) refers to stm32f10x_tim.o(i.TI1_Config) for TI1_Config
    stm32f10x_tim.o(i.TIM_TIxExternalClockConfig) refers to stm32f10x_tim.o(i.TIM_SelectInputTrigger) for TIM_SelectInputTrigger
    entry.o(.ARM.Collect$$$$00000000) refers (Special) to entry10a.o(.ARM.Collect$$$$0000000D) for __rt_final_cpp
    entry.o(.ARM.Collect$$$$00000000) refers (Special) to entry11a.o(.ARM.Collect$$$$0000000F) for __rt_final_exit
    entry.o(.ARM.Collect$$$$00000000) refers (Special) to entry7b.o(.ARM.Collect$$$$00000008) for _main_clock
    entry.o(.ARM.Collect$$$$00000000) refers (Special) to entry8b.o(.ARM.Collect$$$$0000000A) for _main_cpp_init
    entry.o(.ARM.Collect$$$$00000000) refers (Special) to entry9a.o(.ARM.Collect$$$$0000000B) for _main_init
    entry.o(.ARM.Collect$$$$00000000) refers (Special) to entry5.o(.ARM.Collect$$$$00000004) for _main_scatterload
    entry.o(.ARM.Collect$$$$00000000) refers (Special) to entry2.o(.ARM.Collect$$$$00000001) for _main_stk
    uldiv.o(.text) refers to llushr.o(.text) for __aeabi_llsr
    uldiv.o(.text) refers to llshl.o(.text) for __aeabi_llsl
    printfb.o(i.__0fprintf$bare) refers to printfb.o(i._printf_core) for _printf_core
    printfb.o(i.__0fprintf$bare) refers to usart.o(i.fputc) for fputc
    printfb.o(i.__0printf$bare) refers to printfb.o(i._printf_core) for _printf_core
    printfb.o(i.__0printf$bare) refers to usart.o(i.fputc) for fputc
    printfb.o(i.__0printf$bare) refers to usart.o(.data) for __stdout
    printfb.o(i.__0snprintf$bare) refers to printfb.o(i._printf_core) for _printf_core
    printfb.o(i.__0snprintf$bare) refers to printfb.o(i._snputc) for _snputc
    printfb.o(i.__0sprintf$bare) refers to printfb.o(i._printf_core) for _printf_core
    printfb.o(i.__0sprintf$bare) refers to printfb.o(i._sputc) for _sputc
    printfb.o(i.__0vfprintf$bare) refers to printfb.o(i._printf_core) for _printf_core
    printfb.o(i.__0vfprintf$bare) refers to usart.o(i.fputc) for fputc
    printfb.o(i.__0vprintf$bare) refers to printfb.o(i._printf_core) for _printf_core
    printfb.o(i.__0vprintf$bare) refers to usart.o(i.fputc) for fputc
    printfb.o(i.__0vprintf$bare) refers to usart.o(.data) for __stdout
    printfb.o(i.__0vsnprintf$bare) refers to printfb.o(i._printf_core) for _printf_core
    printfb.o(i.__0vsnprintf$bare) refers to printfb.o(i._snputc) for _snputc
    printfb.o(i.__0vsprintf$bare) refers to printfb.o(i._printf_core) for _printf_core
    printfb.o(i.__0vsprintf$bare) refers to printfb.o(i._sputc) for _sputc
    printf0.o(i.__0fprintf$0) refers to printf0.o(i._printf_core) for _printf_core
    printf0.o(i.__0fprintf$0) refers to usart.o(i.fputc) for fputc
    printf0.o(i.__0printf$0) refers to printf0.o(i._printf_core) for _printf_core
    printf0.o(i.__0printf$0) refers to usart.o(i.fputc) for fputc
    printf0.o(i.__0printf$0) refers to usart.o(.data) for __stdout
    printf0.o(i.__0snprintf$0) refers to printf0.o(i._printf_core) for _printf_core
    printf0.o(i.__0snprintf$0) refers to printf0.o(i._snputc) for _snputc
    printf0.o(i.__0sprintf$0) refers to printf0.o(i._printf_core) for _printf_core
    printf0.o(i.__0sprintf$0) refers to printf0.o(i._sputc) for _sputc
    printf0.o(i.__0vfprintf$0) refers to printf0.o(i._printf_core) for _printf_core
    printf0.o(i.__0vfprintf$0) refers to usart.o(i.fputc) for fputc
    printf0.o(i.__0vprintf$0) refers to printf0.o(i._printf_core) for _printf_core
    printf0.o(i.__0vprintf$0) refers to usart.o(i.fputc) for fputc
    printf0.o(i.__0vprintf$0) refers to usart.o(.data) for __stdout
    printf0.o(i.__0vsnprintf$0) refers to printf0.o(i._printf_core) for _printf_core
    printf0.o(i.__0vsnprintf$0) refers to printf0.o(i._snputc) for _snputc
    printf0.o(i.__0vsprintf$0) refers to printf0.o(i._printf_core) for _printf_core
    printf0.o(i.__0vsprintf$0) refers to printf0.o(i._sputc) for _sputc
    printf1.o(i.__0fprintf$1) refers to printf1.o(i._printf_core) for _printf_core
    printf1.o(i.__0fprintf$1) refers to usart.o(i.fputc) for fputc
    printf1.o(i.__0printf$1) refers to printf1.o(i._printf_core) for _printf_core
    printf1.o(i.__0printf$1) refers to usart.o(i.fputc) for fputc
    printf1.o(i.__0printf$1) refers to usart.o(.data) for __stdout
    printf1.o(i.__0snprintf$1) refers to printf1.o(i._printf_core) for _printf_core
    printf1.o(i.__0snprintf$1) refers to printf1.o(i._snputc) for _snputc
    printf1.o(i.__0sprintf$1) refers to printf1.o(i._printf_core) for _printf_core
    printf1.o(i.__0sprintf$1) refers to printf1.o(i._sputc) for _sputc
    printf1.o(i.__0vfprintf$1) refers to printf1.o(i._printf_core) for _printf_core
    printf1.o(i.__0vfprintf$1) refers to usart.o(i.fputc) for fputc
    printf1.o(i.__0vprintf$1) refers to printf1.o(i._printf_core) for _printf_core
    printf1.o(i.__0vprintf$1) refers to usart.o(i.fputc) for fputc
    printf1.o(i.__0vprintf$1) refers to usart.o(.data) for __stdout
    printf1.o(i.__0vsnprintf$1) refers to printf1.o(i._printf_core) for _printf_core
    printf1.o(i.__0vsnprintf$1) refers to printf1.o(i._snputc) for _snputc
    printf1.o(i.__0vsprintf$1) refers to printf1.o(i._printf_core) for _printf_core
    printf1.o(i.__0vsprintf$1) refers to printf1.o(i._sputc) for _sputc
    printf1.o(i._printf_core) refers to uidiv.o(.text) for __aeabi_uidivmod
    printf2.o(i.__0fprintf$2) refers to printf2.o(i._printf_core) for _printf_core
    printf2.o(i.__0fprintf$2) refers to usart.o(i.fputc) for fputc
    printf2.o(i.__0printf$2) refers to printf2.o(i._printf_core) for _printf_core
    printf2.o(i.__0printf$2) refers to usart.o(i.fputc) for fputc
    printf2.o(i.__0printf$2) refers to usart.o(.data) for __stdout
    printf2.o(i.__0snprintf$2) refers to printf2.o(i._printf_core) for _printf_core
    printf2.o(i.__0snprintf$2) refers to printf2.o(i._snputc) for _snputc
    printf2.o(i.__0sprintf$2) refers to printf2.o(i._printf_core) for _printf_core
    printf2.o(i.__0sprintf$2) refers to printf2.o(i._sputc) for _sputc
    printf2.o(i.__0vfprintf$2) refers to printf2.o(i._printf_core) for _printf_core
    printf2.o(i.__0vfprintf$2) refers to usart.o(i.fputc) for fputc
    printf2.o(i.__0vprintf$2) refers to printf2.o(i._printf_core) for _printf_core
    printf2.o(i.__0vprintf$2) refers to usart.o(i.fputc) for fputc
    printf2.o(i.__0vprintf$2) refers to usart.o(.data) for __stdout
    printf2.o(i.__0vsnprintf$2) refers to printf2.o(i._printf_core) for _printf_core
    printf2.o(i.__0vsnprintf$2) refers to printf2.o(i._snputc) for _snputc
    printf2.o(i.__0vsprintf$2) refers to printf2.o(i._printf_core) for _printf_core
    printf2.o(i.__0vsprintf$2) refers to printf2.o(i._sputc) for _sputc
    printf3.o(i.__0fprintf$3) refers to printf3.o(i._printf_core) for _printf_core
    printf3.o(i.__0fprintf$3) refers to usart.o(i.fputc) for fputc
    printf3.o(i.__0printf$3) refers to printf3.o(i._printf_core) for _printf_core
    printf3.o(i.__0printf$3) refers to usart.o(i.fputc) for fputc
    printf3.o(i.__0printf$3) refers to usart.o(.data) for __stdout
    printf3.o(i.__0snprintf$3) refers to printf3.o(i._printf_core) for _printf_core
    printf3.o(i.__0snprintf$3) refers to printf3.o(i._snputc) for _snputc
    printf3.o(i.__0sprintf$3) refers to printf3.o(i._printf_core) for _printf_core
    printf3.o(i.__0sprintf$3) refers to printf3.o(i._sputc) for _sputc
    printf3.o(i.__0vfprintf$3) refers to printf3.o(i._printf_core) for _printf_core
    printf3.o(i.__0vfprintf$3) refers to usart.o(i.fputc) for fputc
    printf3.o(i.__0vprintf$3) refers to printf3.o(i._printf_core) for _printf_core
    printf3.o(i.__0vprintf$3) refers to usart.o(i.fputc) for fputc
    printf3.o(i.__0vprintf$3) refers to usart.o(.data) for __stdout
    printf3.o(i.__0vsnprintf$3) refers to printf3.o(i._printf_core) for _printf_core
    printf3.o(i.__0vsnprintf$3) refers to printf3.o(i._snputc) for _snputc
    printf3.o(i.__0vsprintf$3) refers to printf3.o(i._printf_core) for _printf_core
    printf3.o(i.__0vsprintf$3) refers to printf3.o(i._sputc) for _sputc
    printf3.o(i._printf_core) refers to uidiv.o(.text) for __aeabi_uidivmod
    printf4.o(i.__0fprintf$4) refers to printf4.o(i._printf_core) for _printf_core
    printf4.o(i.__0fprintf$4) refers to usart.o(i.fputc) for fputc
    printf4.o(i.__0printf$4) refers to printf4.o(i._printf_core) for _printf_core
    printf4.o(i.__0printf$4) refers to usart.o(i.fputc) for fputc
    printf4.o(i.__0printf$4) refers to usart.o(.data) for __stdout
    printf4.o(i.__0snprintf$4) refers to printf4.o(i._printf_core) for _printf_core
    printf4.o(i.__0snprintf$4) refers to printf4.o(i._snputc) for _snputc
    printf4.o(i.__0sprintf$4) refers to printf4.o(i._printf_core) for _printf_core
    printf4.o(i.__0sprintf$4) refers to printf4.o(i._sputc) for _sputc
    printf4.o(i.__0vfprintf$4) refers to printf4.o(i._printf_core) for _printf_core
    printf4.o(i.__0vfprintf$4) refers to usart.o(i.fputc) for fputc
    printf4.o(i.__0vprintf$4) refers to printf4.o(i._printf_core) for _printf_core
    printf4.o(i.__0vprintf$4) refers to usart.o(i.fputc) for fputc
    printf4.o(i.__0vprintf$4) refers to usart.o(.data) for __stdout
    printf4.o(i.__0vsnprintf$4) refers to printf4.o(i._printf_core) for _printf_core
    printf4.o(i.__0vsnprintf$4) refers to printf4.o(i._snputc) for _snputc
    printf4.o(i.__0vsprintf$4) refers to printf4.o(i._printf_core) for _printf_core
    printf4.o(i.__0vsprintf$4) refers to printf4.o(i._sputc) for _sputc
    printf4.o(i._printf_core) refers to uldiv.o(.text) for __aeabi_uldivmod
    printf5.o(i.__0fprintf$5) refers to printf5.o(i._printf_core) for _printf_core
    printf5.o(i.__0fprintf$5) refers to usart.o(i.fputc) for fputc
    printf5.o(i.__0printf$5) refers to printf5.o(i._printf_core) for _printf_core
    printf5.o(i.__0printf$5) refers to usart.o(i.fputc) for fputc
    printf5.o(i.__0printf$5) refers to usart.o(.data) for __stdout
    printf5.o(i.__0snprintf$5) refers to printf5.o(i._printf_core) for _printf_core
    printf5.o(i.__0snprintf$5) refers to printf5.o(i._snputc) for _snputc
    printf5.o(i.__0sprintf$5) refers to printf5.o(i._printf_core) for _printf_core
    printf5.o(i.__0sprintf$5) refers to printf5.o(i._sputc) for _sputc
    printf5.o(i.__0vfprintf$5) refers to printf5.o(i._printf_core) for _printf_core
    printf5.o(i.__0vfprintf$5) refers to usart.o(i.fputc) for fputc
    printf5.o(i.__0vprintf$5) refers to printf5.o(i._printf_core) for _printf_core
    printf5.o(i.__0vprintf$5) refers to usart.o(i.fputc) for fputc
    printf5.o(i.__0vprintf$5) refers to usart.o(.data) for __stdout
    printf5.o(i.__0vsnprintf$5) refers to printf5.o(i._printf_core) for _printf_core
    printf5.o(i.__0vsnprintf$5) refers to printf5.o(i._snputc) for _snputc
    printf5.o(i.__0vsprintf$5) refers to printf5.o(i._printf_core) for _printf_core
    printf5.o(i.__0vsprintf$5) refers to printf5.o(i._sputc) for _sputc
    printf5.o(i._printf_core) refers to uldiv.o(.text) for __aeabi_uldivmod
    printf6.o(i.__0fprintf$6) refers to printf6.o(i._printf_core) for _printf_core
    printf6.o(i.__0fprintf$6) refers to usart.o(i.fputc) for fputc
    printf6.o(i.__0printf$6) refers to printf6.o(i._printf_core) for _printf_core
    printf6.o(i.__0printf$6) refers to usart.o(i.fputc) for fputc
    printf6.o(i.__0printf$6) refers to usart.o(.data) for __stdout
    printf6.o(i.__0snprintf$6) refers to printf6.o(i._printf_core) for _printf_core
    printf6.o(i.__0snprintf$6) refers to printf6.o(i._snputc) for _snputc
    printf6.o(i.__0sprintf$6) refers to printf6.o(i._printf_core) for _printf_core
    printf6.o(i.__0sprintf$6) refers to printf6.o(i._sputc) for _sputc
    printf6.o(i.__0vfprintf$6) refers to printf6.o(i._printf_core) for _printf_core
    printf6.o(i.__0vfprintf$6) refers to usart.o(i.fputc) for fputc
    printf6.o(i.__0vprintf$6) refers to printf6.o(i._printf_core) for _printf_core
    printf6.o(i.__0vprintf$6) refers to usart.o(i.fputc) for fputc
    printf6.o(i.__0vprintf$6) refers to usart.o(.data) for __stdout
    printf6.o(i.__0vsnprintf$6) refers to printf6.o(i._printf_core) for _printf_core
    printf6.o(i.__0vsnprintf$6) refers to printf6.o(i._snputc) for _snputc
    printf6.o(i.__0vsprintf$6) refers to printf6.o(i._printf_core) for _printf_core
    printf6.o(i.__0vsprintf$6) refers to printf6.o(i._sputc) for _sputc
    printf6.o(i._printf_core) refers to printf6.o(i._printf_pre_padding) for _printf_pre_padding
    printf6.o(i._printf_core) refers to uidiv.o(.text) for __aeabi_uidivmod
    printf6.o(i._printf_core) refers to printf6.o(i._printf_post_padding) for _printf_post_padding
    printf7.o(i.__0fprintf$7) refers to printf7.o(i._printf_core) for _printf_core
    printf7.o(i.__0fprintf$7) refers to usart.o(i.fputc) for fputc
    printf7.o(i.__0printf$7) refers to printf7.o(i._printf_core) for _printf_core
    printf7.o(i.__0printf$7) refers to usart.o(i.fputc) for fputc
    printf7.o(i.__0printf$7) refers to usart.o(.data) for __stdout
    printf7.o(i.__0snprintf$7) refers to printf7.o(i._printf_core) for _printf_core
    printf7.o(i.__0snprintf$7) refers to printf7.o(i._snputc) for _snputc
    printf7.o(i.__0sprintf$7) refers to printf7.o(i._printf_core) for _printf_core
    printf7.o(i.__0sprintf$7) refers to printf7.o(i._sputc) for _sputc
    printf7.o(i.__0vfprintf$7) refers to printf7.o(i._printf_core) for _printf_core
    printf7.o(i.__0vfprintf$7) refers to usart.o(i.fputc) for fputc
    printf7.o(i.__0vprintf$7) refers to printf7.o(i._printf_core) for _printf_core
    printf7.o(i.__0vprintf$7) refers to usart.o(i.fputc) for fputc
    printf7.o(i.__0vprintf$7) refers to usart.o(.data) for __stdout
    printf7.o(i.__0vsnprintf$7) refers to printf7.o(i._printf_core) for _printf_core
    printf7.o(i.__0vsnprintf$7) refers to printf7.o(i._snputc) for _snputc
    printf7.o(i.__0vsprintf$7) refers to printf7.o(i._printf_core) for _printf_core
    printf7.o(i.__0vsprintf$7) refers to printf7.o(i._sputc) for _sputc
    printf7.o(i._printf_core) refers to printf7.o(i._printf_pre_padding) for _printf_pre_padding
    printf7.o(i._printf_core) refers to uldiv.o(.text) for __aeabi_uldivmod
    printf7.o(i._printf_core) refers to printf7.o(i._printf_post_padding) for _printf_post_padding
    printf8.o(i.__0fprintf$8) refers to printf8.o(i._printf_core) for _printf_core
    printf8.o(i.__0fprintf$8) refers to usart.o(i.fputc) for fputc
    printf8.o(i.__0printf$8) refers to printf8.o(i._printf_core) for _printf_core
    printf8.o(i.__0printf$8) refers to usart.o(i.fputc) for fputc
    printf8.o(i.__0printf$8) refers to usart.o(.data) for __stdout
    printf8.o(i.__0snprintf$8) refers to printf8.o(i._printf_core) for _printf_core
    printf8.o(i.__0snprintf$8) refers to printf8.o(i._snputc) for _snputc
    printf8.o(i.__0sprintf$8) refers to printf8.o(i._printf_core) for _printf_core
    printf8.o(i.__0sprintf$8) refers to printf8.o(i._sputc) for _sputc
    printf8.o(i.__0vfprintf$8) refers to printf8.o(i._printf_core) for _printf_core
    printf8.o(i.__0vfprintf$8) refers to usart.o(i.fputc) for fputc
    printf8.o(i.__0vprintf$8) refers to printf8.o(i._printf_core) for _printf_core
    printf8.o(i.__0vprintf$8) refers to usart.o(i.fputc) for fputc
    printf8.o(i.__0vprintf$8) refers to usart.o(.data) for __stdout
    printf8.o(i.__0vsnprintf$8) refers to printf8.o(i._printf_core) for _printf_core
    printf8.o(i.__0vsnprintf$8) refers to printf8.o(i._snputc) for _snputc
    printf8.o(i.__0vsprintf$8) refers to printf8.o(i._printf_core) for _printf_core
    printf8.o(i.__0vsprintf$8) refers to printf8.o(i._sputc) for _sputc
    printf8.o(i._printf_core) refers to printf8.o(i._printf_pre_padding) for _printf_pre_padding
    printf8.o(i._printf_core) refers to uldiv.o(.text) for __aeabi_uldivmod
    printf8.o(i._printf_core) refers to printf8.o(i._printf_post_padding) for _printf_post_padding
    printfa.o(i.__0fprintf) refers (Special) to iusefp.o(.text) for __I$use$fp
    printfa.o(i.__0fprintf) refers to printfa.o(i._printf_core) for _printf_core
    printfa.o(i.__0fprintf) refers to usart.o(i.fputc) for fputc
    printfa.o(i.__0printf) refers (Special) to iusefp.o(.text) for __I$use$fp
    printfa.o(i.__0printf) refers to printfa.o(i._printf_core) for _printf_core
    printfa.o(i.__0printf) refers to usart.o(i.fputc) for fputc
    printfa.o(i.__0printf) refers to usart.o(.data) for __stdout
    printfa.o(i.__0snprintf) refers (Special) to iusefp.o(.text) for __I$use$fp
    printfa.o(i.__0snprintf) refers to printfa.o(i._printf_core) for _printf_core
    printfa.o(i.__0snprintf) refers to printfa.o(i._snputc) for _snputc
    printfa.o(i.__0sprintf) refers (Special) to iusefp.o(.text) for __I$use$fp
    printfa.o(i.__0sprintf) refers to printfa.o(i._printf_core) for _printf_core
    printfa.o(i.__0sprintf) refers to printfa.o(i._sputc) for _sputc
    printfa.o(i.__0vfprintf) refers (Special) to iusefp.o(.text) for __I$use$fp
    printfa.o(i.__0vfprintf) refers to printfa.o(i._printf_core) for _printf_core
    printfa.o(i.__0vfprintf) refers to usart.o(i.fputc) for fputc
    printfa.o(i.__0vprintf) refers (Special) to iusefp.o(.text) for __I$use$fp
    printfa.o(i.__0vprintf) refers to printfa.o(i._printf_core) for _printf_core
    printfa.o(i.__0vprintf) refers to usart.o(i.fputc) for fputc
    printfa.o(i.__0vprintf) refers to usart.o(.data) for __stdout
    printfa.o(i.__0vsnprintf) refers (Special) to iusefp.o(.text) for __I$use$fp
    printfa.o(i.__0vsnprintf) refers to printfa.o(i._printf_core) for _printf_core
    printfa.o(i.__0vsnprintf) refers to printfa.o(i._snputc) for _snputc
    printfa.o(i.__0vsprintf) refers (Special) to iusefp.o(.text) for __I$use$fp
    printfa.o(i.__0vsprintf) refers to printfa.o(i._printf_core) for _printf_core
    printfa.o(i.__0vsprintf) refers to printfa.o(i._sputc) for _sputc
    printfa.o(i._fp_digits) refers (Special) to iusefp.o(.text) for __I$use$fp
    printfa.o(i._fp_digits) refers to dmul.o(.text) for __aeabi_dmul
    printfa.o(i._fp_digits) refers to ddiv.o(.text) for __aeabi_ddiv
    printfa.o(i._fp_digits) refers to cdrcmple.o(.text) for __aeabi_cdrcmple
    printfa.o(i._fp_digits) refers to dadd.o(.text) for __aeabi_dadd
    printfa.o(i._fp_digits) refers to dfixul.o(.text) for __aeabi_d2ulz
    printfa.o(i._fp_digits) refers to uldiv.o(.text) for __aeabi_uldivmod
    printfa.o(i._printf_core) refers (Special) to iusefp.o(.text) for __I$use$fp
    printfa.o(i._printf_core) refers to printfa.o(i._printf_pre_padding) for _printf_pre_padding
    printfa.o(i._printf_core) refers to uldiv.o(.text) for __aeabi_uldivmod
    printfa.o(i._printf_core) refers to printfa.o(i._printf_post_padding) for _printf_post_padding
    printfa.o(i._printf_core) refers to printfa.o(i._fp_digits) for _fp_digits
    printfa.o(i._printf_core) refers to uidiv.o(.text) for __aeabi_uidivmod
    printfa.o(i._printf_post_padding) refers (Special) to iusefp.o(.text) for __I$use$fp
    printfa.o(i._printf_pre_padding) refers (Special) to iusefp.o(.text) for __I$use$fp
    printfa.o(i._snputc) refers (Special) to iusefp.o(.text) for __I$use$fp
    printfa.o(i._sputc) refers (Special) to iusefp.o(.text) for __I$use$fp
    malloc.o(i.free) refers to mvars.o(.data) for __microlib_freelist
    malloc.o(i.malloc) refers to mvars.o(.data) for __microlib_freelist_initialised
    malloc.o(i.malloc) refers to mvars.o(.data) for __microlib_freelist
    malloc.o(i.malloc) refers to startup_stm32f10x_hd.o(HEAP) for __heap_base
    mallocr.o(i.__free$realloc) refers to mvars.o(.data) for __microlib_freelist
    mallocr.o(i.__malloc$realloc) refers to mallocr.o(i.internal_alloc) for internal_alloc
    mallocr.o(i.__malloc$realloc) refers to mvars.o(.data) for __microlib_freelist_initialised
    mallocr.o(i.__malloc$realloc) refers to startup_stm32f10x_hd.o(HEAP) for __heap_base
    mallocr.o(i.__malloc$realloc) refers to mvars.o(.data) for __microlib_freelist
    mallocr.o(i.internal_alloc) refers to memcpya.o(.text) for __aeabi_memcpy
    mallocr.o(i.internal_alloc) refers to mvars.o(.data) for __microlib_freelist
    mallocr.o(i.realloc) refers to mallocr.o(i.__free$realloc) for __free$realloc
    mallocr.o(i.realloc) refers to mallocr.o(i.internal_alloc) for internal_alloc
    mallocr.o(i.realloc) refers to mallocr.o(i.__malloc$realloc) for __malloc$realloc
    mallocr.o(i.realloc) refers to mvars.o(.data) for __microlib_freelist
    malloca.o(i.__aligned_malloc) refers to mvars.o(.data) for __microlib_freelist_initialised
    malloca.o(i.__aligned_malloc) refers to mvars.o(.data) for __microlib_freelist
    malloca.o(i.__aligned_malloc) refers to startup_stm32f10x_hd.o(HEAP) for __heap_base
    malloca.o(i.__free$memalign) refers to mvars.o(.data) for __microlib_freelist
    malloca.o(i.__malloc$memalign) refers to malloca.o(i.__aligned_malloc) for __aligned_malloc
    mallocra.o(i.__aligned_malloc$realloc) refers to mallocra.o(i.internal_alloc) for internal_alloc
    mallocra.o(i.__aligned_malloc$realloc) refers to mvars.o(.data) for __microlib_freelist_initialised
    mallocra.o(i.__aligned_malloc$realloc) refers to startup_stm32f10x_hd.o(HEAP) for __heap_base
    mallocra.o(i.__aligned_malloc$realloc) refers to mvars.o(.data) for __microlib_freelist
    mallocra.o(i.__free$realloc$memalign) refers to mvars.o(.data) for __microlib_freelist
    mallocra.o(i.__malloc$realloc$memalign) refers to mallocra.o(i.__aligned_malloc$realloc) for __aligned_malloc$realloc
    mallocra.o(i.__realloc$memalign) refers to mallocra.o(i.__free$realloc$memalign) for __free$realloc$memalign
    mallocra.o(i.__realloc$memalign) refers to mallocra.o(i.internal_alloc) for internal_alloc
    mallocra.o(i.__realloc$memalign) refers to mallocra.o(i.__malloc$realloc$memalign) for __malloc$realloc$memalign
    mallocra.o(i.__realloc$memalign) refers to mvars.o(.data) for __microlib_freelist
    mallocra.o(i.internal_alloc) refers to memcpya.o(.text) for __aeabi_memcpy
    mallocra.o(i.internal_alloc) refers to mvars.o(.data) for __microlib_freelist
    fmul.o(.text) refers (Special) to iusefp.o(.text) for __I$use$fp
    fdiv.o(.text) refers (Special) to iusefp.o(.text) for __I$use$fp
    fdiv.o(.text) refers to fepilogue.o(.text) for _float_round
    dadd.o(.text) refers (Special) to iusefp.o(.text) for __I$use$fp
    dadd.o(.text) refers to llshl.o(.text) for __aeabi_llsl
    dadd.o(.text) refers to llsshr.o(.text) for __aeabi_lasr
    dadd.o(.text) refers to depilogue.o(.text) for _double_epilogue
    dmul.o(.text) refers (Special) to iusefp.o(.text) for __I$use$fp
    dmul.o(.text) refers to depilogue.o(.text) for _double_epilogue
    fflti.o(.text) refers (Special) to iusefp.o(.text) for __I$use$fp
    fflti.o(.text) refers to fepilogue.o(.text) for _float_epilogue
    ffltui.o(.text) refers (Special) to iusefp.o(.text) for __I$use$fp
    ffltui.o(.text) refers to fepilogue.o(.text) for _float_epilogue
    dflti.o(.text) refers (Special) to iusefp.o(.text) for __I$use$fp
    dflti.o(.text) refers to depilogue.o(.text) for _double_epilogue
    ffixui.o(.text) refers (Special) to iusefp.o(.text) for __I$use$fp
    dfixi.o(.text) refers (Special) to iusefp.o(.text) for __I$use$fp
    dfixi.o(.text) refers to llushr.o(.text) for __aeabi_llsr
    dfixui.o(.text) refers (Special) to iusefp.o(.text) for __I$use$fp
    dfixui.o(.text) refers to llushr.o(.text) for __aeabi_llsr
    f2d.o(.text) refers (Special) to iusefp.o(.text) for __I$use$fp
    cdcmple.o(.text) refers (Special) to iusefp.o(.text) for __I$use$fp
    cdrcmple.o(.text) refers (Special) to iusefp.o(.text) for __I$use$fp
    d2f.o(.text) refers (Special) to iusefp.o(.text) for __I$use$fp
    d2f.o(.text) refers to fepilogue.o(.text) for _float_round
    cfcmple.o(.text) refers (Special) to iusefp.o(.text) for __I$use$fp
    entry2.o(.ARM.Collect$$$$00000001) refers to entry2.o(.ARM.Collect$$$$00002712) for __lit__00000000
    entry2.o(.ARM.Collect$$$$00002712) refers to startup_stm32f10x_hd.o(STACK) for __initial_sp
    entry2.o(__vectab_stack_and_reset_area) refers to startup_stm32f10x_hd.o(STACK) for __initial_sp
    entry2.o(__vectab_stack_and_reset_area) refers to entry.o(.ARM.Collect$$$$00000000) for __main
    entry5.o(.ARM.Collect$$$$00000004) refers to init.o(.text) for __scatterload
    entry9a.o(.ARM.Collect$$$$0000000B) refers to main.o(i.main) for main
    entry9b.o(.ARM.Collect$$$$0000000C) refers to main.o(i.main) for main
    depilogue.o(.text) refers to llshl.o(.text) for __aeabi_llsl
    depilogue.o(.text) refers to llushr.o(.text) for __aeabi_llsr
    ddiv.o(.text) refers to depilogue.o(.text) for _double_round
    dfixul.o(.text) refers to llushr.o(.text) for __aeabi_llsr
    dfixul.o(.text) refers to llshl.o(.text) for __aeabi_llsl
    init.o(.text) refers to entry5.o(.ARM.Collect$$$$00000004) for __main_after_scatterload
    fmt_jpeg.o(i.round_double) refers to cdrcmple.o(.text) for __aeabi_cdrcmple
    fmt_jpeg.o(i.round_double) refers to dadd.o(.text) for __aeabi_dadd
    fmt_jpeg.o(i.round_double) refers to dfixi.o(.text) for __aeabi_d2iz


==============================================================================

Removing Unused input sections from the image.

    Removing system_stm32f10x.o(i.SystemCoreClockUpdate), (164 bytes).
    Removing irqhandler.o(i.DMAChannel3_IRQHandler), (48 bytes).
    Removing adc.o(i.adc_average), (8 bytes).
    Removing key.o(i.key_scan), (212 bytes).
    Removing key.o(.data), (1 bytes).
    Removing dma.o(i.dma_enable), (14 bytes).
    Removing spi.o(i.SPI1_SetSpeed), (36 bytes).
    Removing oled.o(i.oled_display_off), (12 bytes).
    Removing oled.o(i.oled_display_on), (12 bytes).
    Removing oled.o(i.oled_show_ColorImage), (128 bytes).
    Removing oled.o(i.oled_show_Icon), (220 bytes).
    Removing oled_mathpaint.o(i.oled_draw_circle), (178 bytes).
    Removing sdio_sdcard.o(i.IsCardProgramming), (412 bytes).
    Removing sdio_sdcard.o(i.SD_Detect), (32 bytes).
    Removing sdio_sdcard.o(i.SD_Erase), (308 bytes).
    Removing sdio_sdcard.o(i.SD_GetCardStatus), (6 bytes).
    Removing sdio_sdcard.o(i.SD_GetTransferState), (24 bytes).
    Removing sdio_sdcard.o(i.SD_PowerOFF), (14 bytes).
    Removing sdio_sdcard.o(i.SD_ReadBlock), (220 bytes).
    Removing sdio_sdcard.o(i.SD_SendSDStatus), (376 bytes).
    Removing sdio_sdcard.o(i.SD_StopTransfer), (32 bytes).
    Removing sdio_sdcard.o(i.convert_from_bytes_to_power_of_two), (18 bytes).
    Removing si24r1.o(i.NRF_IRQ_Config), (100 bytes).
    Removing si24r1.o(i.si24r1_RX_RSSI), (24 bytes).
    Removing si24r1.o(i.si24r1_RX_mode), (112 bytes).
    Removing si24r1.o(i.si24r1_RX_packet), (144 bytes).
    Removing timer.o(i.TIM1_PWM_Init), (168 bytes).
    Removing i2c.o(i.I2C_ReadBytes), (116 bytes).
    Removing i2c.o(i.I2C_WriteBytes), (86 bytes).
    Removing i2c.o(i.IIC_Ack), (72 bytes).
    Removing i2c.o(i.IIC_Init), (56 bytes).
    Removing i2c.o(i.IIC_NAck), (56 bytes).
    Removing i2c.o(i.IIC_Read_Byte), (112 bytes).
    Removing i2c.o(i.IIC_Send_Byte), (112 bytes).
    Removing i2c.o(i.IIC_Start), (60 bytes).
    Removing i2c.o(i.IIC_Stop), (60 bytes).
    Removing i2c.o(i.IIC_Wait_Ack), (84 bytes).
    Removing i2c.o(i.SDA_IN), (120 bytes).
    Removing i2c.o(i.SDA_OUT), (124 bytes).
    Removing i2c.o(i.log2_offset), (18 bytes).
    Removing ff.o(i.dir_remove), (106 bytes).
    Removing ff.o(i.f_chmod), (88 bytes).
    Removing ff.o(i.f_gets), (82 bytes).
    Removing ff.o(i.f_mkdir), (354 bytes).
    Removing ff.o(i.f_mkfs), (1608 bytes).
    Removing ff.o(i.f_printf), (628 bytes).
    Removing ff.o(i.f_putc), (64 bytes).
    Removing ff.o(i.f_puts), (74 bytes).
    Removing ff.o(i.f_rename), (262 bytes).
    Removing ff.o(i.f_truncate), (184 bytes).
    Removing ff.o(i.f_unlink), (170 bytes).
    Removing ff.o(i.f_utime), (90 bytes).
    Removing ff.o(i.putc_bfd), (68 bytes).
    Removing extfunc.o(.constdata), (1152 bytes).
    Removing picturelib.o(.bss), (768 bytes).
    Removing picturelib.o(.constdata), (1152 bytes).
    Removing usb_int.o(i.CTR_HP), (200 bytes).
    Removing usb_regs.o(i.ClearEPDoubleBuff), (40 bytes).
    Removing usb_regs.o(i.ClearEP_CTR_RX), (36 bytes).
    Removing usb_regs.o(i.ClearEP_CTR_TX), (32 bytes).
    Removing usb_regs.o(i.ClearEP_KIND), (40 bytes).
    Removing usb_regs.o(i.FreeUserBuffer), (84 bytes).
    Removing usb_regs.o(i.GetBTABLE), (12 bytes).
    Removing usb_regs.o(i.GetCNTR), (12 bytes).
    Removing usb_regs.o(i.GetDADDR), (12 bytes).
    Removing usb_regs.o(i.GetENDPOINT), (20 bytes).
    Removing usb_regs.o(i.GetEPAddress), (24 bytes).
    Removing usb_regs.o(i.GetEPDblBuf0Addr), (32 bytes).
    Removing usb_regs.o(i.GetEPDblBuf0Count), (36 bytes).
    Removing usb_regs.o(i.GetEPDblBuf1Addr), (32 bytes).
    Removing usb_regs.o(i.GetEPDblBuf1Count), (36 bytes).
    Removing usb_regs.o(i.GetEPDblBufDir), (72 bytes).
    Removing usb_regs.o(i.GetEPRxCount), (36 bytes).
    Removing usb_regs.o(i.GetEPRxStatus), (24 bytes).
    Removing usb_regs.o(i.GetEPTxCount), (36 bytes).
    Removing usb_regs.o(i.GetEPTxStatus), (24 bytes).
    Removing usb_regs.o(i.GetEPType), (24 bytes).
    Removing usb_regs.o(i.GetFNR), (12 bytes).
    Removing usb_regs.o(i.GetISTR), (12 bytes).
    Removing usb_regs.o(i.GetRxStallStatus), (36 bytes).
    Removing usb_regs.o(i.GetTxStallStatus), (32 bytes).
    Removing usb_regs.o(i.SetCNTR), (12 bytes).
    Removing usb_regs.o(i.SetDADDR), (12 bytes).
    Removing usb_regs.o(i.SetDouBleBuffEPStall), (60 bytes).
    Removing usb_regs.o(i.SetENDPOINT), (16 bytes).
    Removing usb_regs.o(i.SetEPAddress), (44 bytes).
    Removing usb_regs.o(i.SetEPCountRxReg), (48 bytes).
    Removing usb_regs.o(i.SetEPDblBuf0Addr), (32 bytes).
    Removing usb_regs.o(i.SetEPDblBuf0Count), (104 bytes).
    Removing usb_regs.o(i.SetEPDblBuf1Addr), (36 bytes).
    Removing usb_regs.o(i.SetEPDblBuf1Count), (104 bytes).
    Removing usb_regs.o(i.SetEPDblBuffAddr), (52 bytes).
    Removing usb_regs.o(i.SetEPDblBuffCount), (196 bytes).
    Removing usb_regs.o(i.SetEPDoubleBuff), (44 bytes).
    Removing usb_regs.o(i.SetEP_KIND), (44 bytes).
    Removing usb_regs.o(i.SetISTR), (12 bytes).
    Removing usb_regs.o(i.Set_Status_Out), (44 bytes).
    Removing usb_regs.o(i.ToWord), (8 bytes).
    Removing usb_regs.o(i.ToggleDTOG_RX), (40 bytes).
    Removing usb_regs.o(i.ToggleDTOG_TX), (40 bytes).
    Removing usb_sil.o(i.USB_SIL_Read), (46 bytes).
    Removing usb_pwr.o(i.PowerOff), (32 bytes).
    Removing delay.o(i.delay_us), (76 bytes).
    Removing sys.o(.emb_text), (6 bytes).
    Removing sys.o(i.INTX_DISABLE), (4 bytes).
    Removing sys.o(i.INTX_ENABLE), (4 bytes).
    Removing sys.o(i.WFI_SET), (4 bytes).
    Removing usart.o(i._sys_exit), (4 bytes).
    Removing usart.o(i._ttywrch), (4 bytes).
    Removing usart.o(i.fputc), (28 bytes).
    Removing usart.o(i.uart_init), (160 bytes).
    Removing core_cm3.o(.emb_text), (32 bytes).
    Removing misc.o(i.NVIC_SetVectorTable), (20 bytes).
    Removing misc.o(i.NVIC_SystemLPConfig), (32 bytes).
    Removing stm32f10x_adc.o(i.ADC_AnalogWatchdogCmd), (20 bytes).
    Removing stm32f10x_adc.o(i.ADC_AnalogWatchdogSingleChannelConfig), (16 bytes).
    Removing stm32f10x_adc.o(i.ADC_AnalogWatchdogThresholdsConfig), (6 bytes).
    Removing stm32f10x_adc.o(i.ADC_AutoInjectedConvCmd), (22 bytes).
    Removing stm32f10x_adc.o(i.ADC_ClearFlag), (6 bytes).
    Removing stm32f10x_adc.o(i.ADC_ClearITPendingBit), (10 bytes).
    Removing stm32f10x_adc.o(i.ADC_DiscModeChannelCountConfig), (24 bytes).
    Removing stm32f10x_adc.o(i.ADC_DiscModeCmd), (22 bytes).
    Removing stm32f10x_adc.o(i.ADC_ExternalTrigConvCmd), (22 bytes).
    Removing stm32f10x_adc.o(i.ADC_ExternalTrigInjectedConvCmd), (22 bytes).
    Removing stm32f10x_adc.o(i.ADC_ExternalTrigInjectedConvConfig), (16 bytes).
    Removing stm32f10x_adc.o(i.ADC_GetConversionValue), (8 bytes).
    Removing stm32f10x_adc.o(i.ADC_GetDualModeConversionValue), (12 bytes).
    Removing stm32f10x_adc.o(i.ADC_GetFlagStatus), (18 bytes).
    Removing stm32f10x_adc.o(i.ADC_GetITStatus), (36 bytes).
    Removing stm32f10x_adc.o(i.ADC_GetInjectedConversionValue), (28 bytes).
    Removing stm32f10x_adc.o(i.ADC_GetSoftwareStartConvStatus), (20 bytes).
    Removing stm32f10x_adc.o(i.ADC_GetSoftwareStartInjectedConvCmdStatus), (20 bytes).
    Removing stm32f10x_adc.o(i.ADC_ITConfig), (24 bytes).
    Removing stm32f10x_adc.o(i.ADC_InjectedChannelConfig), (130 bytes).
    Removing stm32f10x_adc.o(i.ADC_InjectedDiscModeCmd), (22 bytes).
    Removing stm32f10x_adc.o(i.ADC_InjectedSequencerLengthConfig), (24 bytes).
    Removing stm32f10x_adc.o(i.ADC_SetInjectedOffset), (20 bytes).
    Removing stm32f10x_adc.o(i.ADC_SoftwareStartInjectedConvCmd), (22 bytes).
    Removing stm32f10x_adc.o(i.ADC_StructInit), (18 bytes).
    Removing stm32f10x_adc.o(i.ADC_TempSensorVrefintCmd), (36 bytes).
    Removing stm32f10x_gpio.o(i.GPIO_AFIODeInit), (20 bytes).
    Removing stm32f10x_gpio.o(i.GPIO_DeInit), (200 bytes).
    Removing stm32f10x_gpio.o(i.GPIO_ETH_MediaInterfaceConfig), (12 bytes).
    Removing stm32f10x_gpio.o(i.GPIO_EventOutputCmd), (12 bytes).
    Removing stm32f10x_gpio.o(i.GPIO_EventOutputConfig), (32 bytes).
    Removing stm32f10x_gpio.o(i.GPIO_PinLockConfig), (18 bytes).
    Removing stm32f10x_gpio.o(i.GPIO_PinRemapConfig), (144 bytes).
    Removing stm32f10x_gpio.o(i.GPIO_ReadInputData), (8 bytes).
    Removing stm32f10x_gpio.o(i.GPIO_ReadOutputData), (8 bytes).
    Removing stm32f10x_gpio.o(i.GPIO_ReadOutputDataBit), (18 bytes).
    Removing stm32f10x_gpio.o(i.GPIO_StructInit), (16 bytes).
    Removing stm32f10x_gpio.o(i.GPIO_Write), (4 bytes).
    Removing stm32f10x_gpio.o(i.GPIO_WriteBit), (10 bytes).
    Removing stm32f10x_rcc.o(i.RCC_APB1PeriphResetCmd), (32 bytes).
    Removing stm32f10x_rcc.o(i.RCC_AdjustHSICalibrationValue), (24 bytes).
    Removing stm32f10x_rcc.o(i.RCC_BackupResetCmd), (12 bytes).
    Removing stm32f10x_rcc.o(i.RCC_ClearFlag), (20 bytes).
    Removing stm32f10x_rcc.o(i.RCC_ClearITPendingBit), (12 bytes).
    Removing stm32f10x_rcc.o(i.RCC_ClockSecuritySystemCmd), (12 bytes).
    Removing stm32f10x_rcc.o(i.RCC_DeInit), (76 bytes).
    Removing stm32f10x_rcc.o(i.RCC_GetClocksFreq), (212 bytes).
    Removing stm32f10x_rcc.o(i.RCC_GetFlagStatus), (60 bytes).
    Removing stm32f10x_rcc.o(i.RCC_GetITStatus), (24 bytes).
    Removing stm32f10x_rcc.o(i.RCC_GetSYSCLKSource), (16 bytes).
    Removing stm32f10x_rcc.o(i.RCC_HCLKConfig), (24 bytes).
    Removing stm32f10x_rcc.o(i.RCC_HSEConfig), (76 bytes).
    Removing stm32f10x_rcc.o(i.RCC_HSICmd), (12 bytes).
    Removing stm32f10x_rcc.o(i.RCC_ITConfig), (32 bytes).
    Removing stm32f10x_rcc.o(i.RCC_LSEConfig), (52 bytes).
    Removing stm32f10x_rcc.o(i.RCC_LSICmd), (12 bytes).
    Removing stm32f10x_rcc.o(i.RCC_MCOConfig), (12 bytes).
    Removing stm32f10x_rcc.o(i.RCC_PCLK1Config), (24 bytes).
    Removing stm32f10x_rcc.o(i.RCC_PCLK2Config), (24 bytes).
    Removing stm32f10x_rcc.o(i.RCC_PLLCmd), (12 bytes).
    Removing stm32f10x_rcc.o(i.RCC_PLLConfig), (28 bytes).
    Removing stm32f10x_rcc.o(i.RCC_RTCCLKCmd), (12 bytes).
    Removing stm32f10x_rcc.o(i.RCC_RTCCLKConfig), (16 bytes).
    Removing stm32f10x_rcc.o(i.RCC_SYSCLKConfig), (24 bytes).
    Removing stm32f10x_rcc.o(i.RCC_WaitForHSEStartUp), (56 bytes).
    Removing stm32f10x_rcc.o(.data), (20 bytes).
    Removing stm32f10x_usart.o(i.USART_ClearFlag), (18 bytes).
    Removing stm32f10x_usart.o(i.USART_ClearITPendingBit), (30 bytes).
    Removing stm32f10x_usart.o(i.USART_ClockInit), (34 bytes).
    Removing stm32f10x_usart.o(i.USART_ClockStructInit), (12 bytes).
    Removing stm32f10x_usart.o(i.USART_Cmd), (24 bytes).
    Removing stm32f10x_usart.o(i.USART_DMACmd), (18 bytes).
    Removing stm32f10x_usart.o(i.USART_DeInit), (156 bytes).
    Removing stm32f10x_usart.o(i.USART_GetFlagStatus), (26 bytes).
    Removing stm32f10x_usart.o(i.USART_HalfDuplexCmd), (24 bytes).
    Removing stm32f10x_usart.o(i.USART_ITConfig), (74 bytes).
    Removing stm32f10x_usart.o(i.USART_Init), (216 bytes).
    Removing stm32f10x_usart.o(i.USART_IrDACmd), (24 bytes).
    Removing stm32f10x_usart.o(i.USART_IrDAConfig), (18 bytes).
    Removing stm32f10x_usart.o(i.USART_LINBreakDetectLengthConfig), (18 bytes).
    Removing stm32f10x_usart.o(i.USART_LINCmd), (24 bytes).
    Removing stm32f10x_usart.o(i.USART_OneBitMethodCmd), (24 bytes).
    Removing stm32f10x_usart.o(i.USART_OverSampling8Cmd), (22 bytes).
    Removing stm32f10x_usart.o(i.USART_ReceiverWakeUpCmd), (24 bytes).
    Removing stm32f10x_usart.o(i.USART_SendBreak), (10 bytes).
    Removing stm32f10x_usart.o(i.USART_SendData), (8 bytes).
    Removing stm32f10x_usart.o(i.USART_SetAddress), (18 bytes).
    Removing stm32f10x_usart.o(i.USART_SetGuardTime), (16 bytes).
    Removing stm32f10x_usart.o(i.USART_SetPrescaler), (16 bytes).
    Removing stm32f10x_usart.o(i.USART_SmartCardCmd), (24 bytes).
    Removing stm32f10x_usart.o(i.USART_SmartCardNACKCmd), (24 bytes).
    Removing stm32f10x_usart.o(i.USART_StructInit), (24 bytes).
    Removing stm32f10x_usart.o(i.USART_WakeUpConfig), (18 bytes).
    Removing stm32f10x_exti.o(i.EXTI_ClearFlag), (12 bytes).
    Removing stm32f10x_exti.o(i.EXTI_DeInit), (36 bytes).
    Removing stm32f10x_exti.o(i.EXTI_GenerateSWInterrupt), (16 bytes).
    Removing stm32f10x_exti.o(i.EXTI_GetFlagStatus), (24 bytes).
    Removing stm32f10x_exti.o(i.EXTI_StructInit), (16 bytes).
    Removing stm32f10x_spi.o(i.I2S_Cmd), (24 bytes).
    Removing stm32f10x_spi.o(i.I2S_Init), (232 bytes).
    Removing stm32f10x_spi.o(i.I2S_StructInit), (20 bytes).
    Removing stm32f10x_spi.o(i.SPI_BiDirectionalLineConfig), (28 bytes).
    Removing stm32f10x_spi.o(i.SPI_CalculateCRC), (24 bytes).
    Removing stm32f10x_spi.o(i.SPI_DataSizeConfig), (18 bytes).
    Removing stm32f10x_spi.o(i.SPI_GetCRC), (16 bytes).
    Removing stm32f10x_spi.o(i.SPI_GetCRCPolynomial), (6 bytes).
    Removing stm32f10x_spi.o(i.SPI_I2S_ClearFlag), (6 bytes).
    Removing stm32f10x_spi.o(i.SPI_I2S_ClearITPendingBit), (20 bytes).
    Removing stm32f10x_spi.o(i.SPI_I2S_DMACmd), (18 bytes).
    Removing stm32f10x_spi.o(i.SPI_I2S_DeInit), (88 bytes).
    Removing stm32f10x_spi.o(i.SPI_I2S_GetITStatus), (52 bytes).
    Removing stm32f10x_spi.o(i.SPI_I2S_ITConfig), (32 bytes).
    Removing stm32f10x_spi.o(i.SPI_NSSInternalSoftwareConfig), (30 bytes).
    Removing stm32f10x_spi.o(i.SPI_SSOutputCmd), (24 bytes).
    Removing stm32f10x_spi.o(i.SPI_StructInit), (24 bytes).
    Removing stm32f10x_spi.o(i.SPI_TransmitCRC), (10 bytes).
    Removing stm32f10x_dma.o(i.DMA_ClearITPendingBit), (28 bytes).
    Removing stm32f10x_dma.o(i.DMA_GetCurrDataCounter), (8 bytes).
    Removing stm32f10x_dma.o(i.DMA_GetITStatus), (44 bytes).
    Removing stm32f10x_dma.o(i.DMA_ITConfig), (18 bytes).
    Removing stm32f10x_dma.o(i.DMA_SetCurrDataCounter), (4 bytes).
    Removing stm32f10x_dma.o(i.DMA_StructInit), (26 bytes).
    Removing stm32f10x_sdio.o(i.SDIO_CEATAITCmd), (16 bytes).
    Removing stm32f10x_sdio.o(i.SDIO_CmdStructInit), (14 bytes).
    Removing stm32f10x_sdio.o(i.SDIO_CommandCompletionCmd), (12 bytes).
    Removing stm32f10x_sdio.o(i.SDIO_DataStructInit), (20 bytes).
    Removing stm32f10x_sdio.o(i.SDIO_GetDataCounter), (12 bytes).
    Removing stm32f10x_sdio.o(i.SDIO_GetFIFOCount), (12 bytes).
    Removing stm32f10x_sdio.o(i.SDIO_GetITStatus), (24 bytes).
    Removing stm32f10x_sdio.o(i.SDIO_SendCEATACmd), (12 bytes).
    Removing stm32f10x_sdio.o(i.SDIO_SendSDIOSuspendCmd), (12 bytes).
    Removing stm32f10x_sdio.o(i.SDIO_SetSDIOOperation), (12 bytes).
    Removing stm32f10x_sdio.o(i.SDIO_SetSDIOReadWaitMode), (12 bytes).
    Removing stm32f10x_sdio.o(i.SDIO_StartSDIOReadWait), (12 bytes).
    Removing stm32f10x_sdio.o(i.SDIO_StopSDIOReadWait), (12 bytes).
    Removing stm32f10x_sdio.o(i.SDIO_StructInit), (16 bytes).
    Removing stm32f10x_sdio.o(i.SDIO_WriteData), (12 bytes).
    Removing stm32f10x_tim.o(i.TI1_Config), (128 bytes).
    Removing stm32f10x_tim.o(i.TI2_Config), (152 bytes).
    Removing stm32f10x_tim.o(i.TI3_Config), (144 bytes).
    Removing stm32f10x_tim.o(i.TI4_Config), (152 bytes).
    Removing stm32f10x_tim.o(i.TIM_ARRPreloadConfig), (24 bytes).
    Removing stm32f10x_tim.o(i.TIM_BDTRConfig), (32 bytes).
    Removing stm32f10x_tim.o(i.TIM_BDTRStructInit), (18 bytes).
    Removing stm32f10x_tim.o(i.TIM_CCPreloadControl), (24 bytes).
    Removing stm32f10x_tim.o(i.TIM_CCxCmd), (30 bytes).
    Removing stm32f10x_tim.o(i.TIM_CCxNCmd), (30 bytes).
    Removing stm32f10x_tim.o(i.TIM_ClearFlag), (6 bytes).
    Removing stm32f10x_tim.o(i.TIM_ClearOC1Ref), (18 bytes).
    Removing stm32f10x_tim.o(i.TIM_ClearOC2Ref), (24 bytes).
    Removing stm32f10x_tim.o(i.TIM_ClearOC3Ref), (18 bytes).
    Removing stm32f10x_tim.o(i.TIM_ClearOC4Ref), (24 bytes).
    Removing stm32f10x_tim.o(i.TIM_CounterModeConfig), (18 bytes).
    Removing stm32f10x_tim.o(i.TIM_CtrlPWMOutputs), (30 bytes).
    Removing stm32f10x_tim.o(i.TIM_DMACmd), (18 bytes).
    Removing stm32f10x_tim.o(i.TIM_DMAConfig), (10 bytes).
    Removing stm32f10x_tim.o(i.TIM_DeInit), (488 bytes).
    Removing stm32f10x_tim.o(i.TIM_ETRClockMode1Config), (54 bytes).
    Removing stm32f10x_tim.o(i.TIM_ETRClockMode2Config), (32 bytes).
    Removing stm32f10x_tim.o(i.TIM_ETRConfig), (28 bytes).
    Removing stm32f10x_tim.o(i.TIM_EncoderInterfaceConfig), (66 bytes).
    Removing stm32f10x_tim.o(i.TIM_ForcedOC1Config), (18 bytes).
    Removing stm32f10x_tim.o(i.TIM_ForcedOC2Config), (26 bytes).
    Removing stm32f10x_tim.o(i.TIM_ForcedOC3Config), (18 bytes).
    Removing stm32f10x_tim.o(i.TIM_ForcedOC4Config), (26 bytes).
    Removing stm32f10x_tim.o(i.TIM_GenerateEvent), (4 bytes).
    Removing stm32f10x_tim.o(i.TIM_GetCapture1), (6 bytes).
    Removing stm32f10x_tim.o(i.TIM_GetCapture2), (6 bytes).
    Removing stm32f10x_tim.o(i.TIM_GetCapture3), (6 bytes).
    Removing stm32f10x_tim.o(i.TIM_GetCapture4), (8 bytes).
    Removing stm32f10x_tim.o(i.TIM_GetCounter), (6 bytes).
    Removing stm32f10x_tim.o(i.TIM_GetFlagStatus), (18 bytes).
    Removing stm32f10x_tim.o(i.TIM_GetPrescaler), (6 bytes).
    Removing stm32f10x_tim.o(i.TIM_ICInit), (172 bytes).
    Removing stm32f10x_tim.o(i.TIM_ICStructInit), (18 bytes).
    Removing stm32f10x_tim.o(i.TIM_ITRxExternalClockConfig), (24 bytes).
    Removing stm32f10x_tim.o(i.TIM_InternalClockConfig), (12 bytes).
    Removing stm32f10x_tim.o(i.TIM_OC1FastConfig), (18 bytes).
    Removing stm32f10x_tim.o(i.TIM_OC1Init), (152 bytes).
    Removing stm32f10x_tim.o(i.TIM_OC1NPolarityConfig), (18 bytes).
    Removing stm32f10x_tim.o(i.TIM_OC1PolarityConfig), (18 bytes).
    Removing stm32f10x_tim.o(i.TIM_OC1PreloadConfig), (18 bytes).
    Removing stm32f10x_tim.o(i.TIM_OC2FastConfig), (26 bytes).
    Removing stm32f10x_tim.o(i.TIM_OC2Init), (164 bytes).
    Removing stm32f10x_tim.o(i.TIM_OC2NPolarityConfig), (26 bytes).
    Removing stm32f10x_tim.o(i.TIM_OC2PolarityConfig), (26 bytes).
    Removing stm32f10x_tim.o(i.TIM_OC2PreloadConfig), (26 bytes).
    Removing stm32f10x_tim.o(i.TIM_OC3FastConfig), (18 bytes).
    Removing stm32f10x_tim.o(i.TIM_OC3Init), (160 bytes).
    Removing stm32f10x_tim.o(i.TIM_OC3NPolarityConfig), (26 bytes).
    Removing stm32f10x_tim.o(i.TIM_OC3PolarityConfig), (26 bytes).
    Removing stm32f10x_tim.o(i.TIM_OC3PreloadConfig), (18 bytes).
    Removing stm32f10x_tim.o(i.TIM_OC4FastConfig), (26 bytes).
    Removing stm32f10x_tim.o(i.TIM_OC4Init), (124 bytes).
    Removing stm32f10x_tim.o(i.TIM_OC4PolarityConfig), (26 bytes).
    Removing stm32f10x_tim.o(i.TIM_OC4PreloadConfig), (26 bytes).
    Removing stm32f10x_tim.o(i.TIM_OCStructInit), (20 bytes).
    Removing stm32f10x_tim.o(i.TIM_PWMIConfig), (124 bytes).
    Removing stm32f10x_tim.o(i.TIM_PrescalerConfig), (6 bytes).
    Removing stm32f10x_tim.o(i.TIM_SelectCCDMA), (24 bytes).
    Removing stm32f10x_tim.o(i.TIM_SelectCOM), (24 bytes).
    Removing stm32f10x_tim.o(i.TIM_SelectHallSensor), (24 bytes).
    Removing stm32f10x_tim.o(i.TIM_SelectInputTrigger), (18 bytes).
    Removing stm32f10x_tim.o(i.TIM_SelectMasterSlaveMode), (18 bytes).
    Removing stm32f10x_tim.o(i.TIM_SelectOCxM), (82 bytes).
    Removing stm32f10x_tim.o(i.TIM_SelectOnePulseMode), (18 bytes).
    Removing stm32f10x_tim.o(i.TIM_SelectOutputTrigger), (18 bytes).
    Removing stm32f10x_tim.o(i.TIM_SelectSlaveMode), (18 bytes).
    Removing stm32f10x_tim.o(i.TIM_SetAutoreload), (4 bytes).
    Removing stm32f10x_tim.o(i.TIM_SetClockDivision), (18 bytes).
    Removing stm32f10x_tim.o(i.TIM_SetCompare1), (4 bytes).
    Removing stm32f10x_tim.o(i.TIM_SetCompare2), (4 bytes).
    Removing stm32f10x_tim.o(i.TIM_SetCompare3), (4 bytes).
    Removing stm32f10x_tim.o(i.TIM_SetCompare4), (6 bytes).
    Removing stm32f10x_tim.o(i.TIM_SetCounter), (4 bytes).
    Removing stm32f10x_tim.o(i.TIM_SetIC1Prescaler), (18 bytes).
    Removing stm32f10x_tim.o(i.TIM_SetIC2Prescaler), (26 bytes).
    Removing stm32f10x_tim.o(i.TIM_SetIC3Prescaler), (18 bytes).
    Removing stm32f10x_tim.o(i.TIM_SetIC4Prescaler), (26 bytes).
    Removing stm32f10x_tim.o(i.TIM_TIxExternalClockConfig), (62 bytes).
    Removing stm32f10x_tim.o(i.TIM_TimeBaseStructInit), (18 bytes).
    Removing stm32f10x_tim.o(i.TIM_UpdateDisableConfig), (24 bytes).
    Removing stm32f10x_tim.o(i.TIM_UpdateRequestConfig), (24 bytes).
    Removing ddiv.o(.text), (222 bytes).
    Removing dfixul.o(.text), (48 bytes).

339 unused section(s) (total 21233 bytes) removed from the image.

==============================================================================

Image Symbol Table

    Local Symbols

    Symbol Name                              Value     Ov Type        Size  Object(Section)

    ../clib/../cmprslib/zerorunl2.c          0x00000000   Number         0  __dczerorl2.o ABSOLUTE
    ../clib/microlib/division.c              0x00000000   Number         0  uidiv.o ABSOLUTE
    ../clib/microlib/division.c              0x00000000   Number         0  uldiv.o ABSOLUTE
    ../clib/microlib/init/entry.s            0x00000000   Number         0  entry7b.o ABSOLUTE
    ../clib/microlib/init/entry.s            0x00000000   Number         0  entry.o ABSOLUTE
    ../clib/microlib/init/entry.s            0x00000000   Number         0  entry8a.o ABSOLUTE
    ../clib/microlib/init/entry.s            0x00000000   Number         0  entry8b.o ABSOLUTE
    ../clib/microlib/init/entry.s            0x00000000   Number         0  entry10a.o ABSOLUTE
    ../clib/microlib/init/entry.s            0x00000000   Number         0  entry9a.o ABSOLUTE
    ../clib/microlib/init/entry.s            0x00000000   Number         0  entry5.o ABSOLUTE
    ../clib/microlib/init/entry.s            0x00000000   Number         0  entry10b.o ABSOLUTE
    ../clib/microlib/init/entry.s            0x00000000   Number         0  entry9b.o ABSOLUTE
    ../clib/microlib/init/entry.s            0x00000000   Number         0  entry11a.o ABSOLUTE
    ../clib/microlib/init/entry.s            0x00000000   Number         0  entry11b.o ABSOLUTE
    ../clib/microlib/init/entry.s            0x00000000   Number         0  entry7a.o ABSOLUTE
    ../clib/microlib/init/entry.s            0x00000000   Number         0  entry2.o ABSOLUTE
    ../clib/microlib/longlong.c              0x00000000   Number         0  llushr.o ABSOLUTE
    ../clib/microlib/longlong.c              0x00000000   Number         0  llshl.o ABSOLUTE
    ../clib/microlib/longlong.c              0x00000000   Number         0  llsshr.o ABSOLUTE
    ../clib/microlib/malloc/malloc.c         0x00000000   Number         0  malloc.o ABSOLUTE
    ../clib/microlib/malloc/malloc.c         0x00000000   Number         0  mallocra.o ABSOLUTE
    ../clib/microlib/malloc/malloc.c         0x00000000   Number         0  mallocr.o ABSOLUTE
    ../clib/microlib/malloc/malloc.c         0x00000000   Number         0  malloca.o ABSOLUTE
    ../clib/microlib/malloc/mvars.c          0x00000000   Number         0  mvars.o ABSOLUTE
    ../clib/microlib/printf/printf.c         0x00000000   Number         0  printf1.o ABSOLUTE
    ../clib/microlib/printf/printf.c         0x00000000   Number         0  printf8.o ABSOLUTE
    ../clib/microlib/printf/printf.c         0x00000000   Number         0  printfa.o ABSOLUTE
    ../clib/microlib/printf/printf.c         0x00000000   Number         0  printfb.o ABSOLUTE
    ../clib/microlib/printf/printf.c         0x00000000   Number         0  printf0.o ABSOLUTE
    ../clib/microlib/printf/printf.c         0x00000000   Number         0  printf6.o ABSOLUTE
    ../clib/microlib/printf/printf.c         0x00000000   Number         0  printf5.o ABSOLUTE
    ../clib/microlib/printf/printf.c         0x00000000   Number         0  printf7.o ABSOLUTE
    ../clib/microlib/printf/printf.c         0x00000000   Number         0  printf4.o ABSOLUTE
    ../clib/microlib/printf/printf.c         0x00000000   Number         0  printf3.o ABSOLUTE
    ../clib/microlib/printf/printf.c         0x00000000   Number         0  printf2.o ABSOLUTE
    ../clib/microlib/printf/stubs.s          0x00000000   Number         0  stubs.o ABSOLUTE
    ../clib/microlib/string/memcpy.c         0x00000000   Number         0  memcpya.o ABSOLUTE
    ../clib/microlib/string/memcpy.c         0x00000000   Number         0  memcpyb.o ABSOLUTE
    ../clib/microlib/string/memset.c         0x00000000   Number         0  memseta.o ABSOLUTE
    ../clib/microlib/string/strlen.c         0x00000000   Number         0  strlen.o ABSOLUTE
    ../clib/microlib/string/strncpy.c        0x00000000   Number         0  strncpy.o ABSOLUTE
    ../clib/microlib/string/strstr.c         0x00000000   Number         0  strstr.o ABSOLUTE
    ../clib/microlib/stubs.s                 0x00000000   Number         0  iusefp.o ABSOLUTE
    ../clib/microlib/stubs.s                 0x00000000   Number         0  useno.o ABSOLUTE
    ../fplib/microlib/d2f.c                  0x00000000   Number         0  d2f.o ABSOLUTE
    ../fplib/microlib/f2d.c                  0x00000000   Number         0  f2d.o ABSOLUTE
    ../fplib/microlib/fpadd.c                0x00000000   Number         0  dadd.o ABSOLUTE
    ../fplib/microlib/fpdiv.c                0x00000000   Number         0  fdiv.o ABSOLUTE
    ../fplib/microlib/fpdiv.c                0x00000000   Number         0  ddiv.o ABSOLUTE
    ../fplib/microlib/fpepilogue.c           0x00000000   Number         0  fepilogue.o ABSOLUTE
    ../fplib/microlib/fpepilogue.c           0x00000000   Number         0  depilogue.o ABSOLUTE
    ../fplib/microlib/fpfix.c                0x00000000   Number         0  dfixui.o ABSOLUTE
    ../fplib/microlib/fpfix.c                0x00000000   Number         0  dfixul.o ABSOLUTE
    ../fplib/microlib/fpfix.c                0x00000000   Number         0  ffixui.o ABSOLUTE
    ../fplib/microlib/fpfix.c                0x00000000   Number         0  dfixi.o ABSOLUTE
    ../fplib/microlib/fpflt.c                0x00000000   Number         0  fflti.o ABSOLUTE
    ../fplib/microlib/fpflt.c                0x00000000   Number         0  ffltui.o ABSOLUTE
    ../fplib/microlib/fpflt.c                0x00000000   Number         0  dflti.o ABSOLUTE
    ../fplib/microlib/fpmul.c                0x00000000   Number         0  fmul.o ABSOLUTE
    ../fplib/microlib/fpmul.c                0x00000000   Number         0  dmul.o ABSOLUTE
    ..\Core\core_cm3.c                       0x00000000   Number         0  core_cm3.o ABSOLUTE
    ..\Core\startup_stm32f10x_hd.s           0x00000000   Number         0  startup_stm32f10x_hd.o ABSOLUTE
    ..\FatFs\diskio.c                        0x00000000   Number         0  diskio.o ABSOLUTE
    ..\FatFs\extfunc.c                       0x00000000   Number         0  extfunc.o ABSOLUTE
    ..\FatFs\ff.c                            0x00000000   Number         0  ff.o ABSOLUTE
    ..\FatFs\option\ccsbcs.c                 0x00000000   Number         0  ccsbcs.o ABSOLUTE
    ..\Hardware\IRQHandler.c                 0x00000000   Number         0  irqhandler.o ABSOLUTE
    ..\Hardware\adc.c                        0x00000000   Number         0  adc.o ABSOLUTE
    ..\Hardware\dma.c                        0x00000000   Number         0  dma.o ABSOLUTE
    ..\Hardware\exti.c                       0x00000000   Number         0  exti.o ABSOLUTE
    ..\Hardware\i2c.c                        0x00000000   Number         0  i2c.o ABSOLUTE
    ..\Hardware\key.c                        0x00000000   Number         0  key.o ABSOLUTE
    ..\Hardware\led.c                        0x00000000   Number         0  led.o ABSOLUTE
    ..\Hardware\oled.c                       0x00000000   Number         0  oled.o ABSOLUTE
    ..\Hardware\oled_mathpaint.c             0x00000000   Number         0  oled_mathpaint.o ABSOLUTE
    ..\Hardware\sdio_sdcard.c                0x00000000   Number         0  sdio_sdcard.o ABSOLUTE
    ..\Hardware\si24r1.c                     0x00000000   Number         0  si24r1.o ABSOLUTE
    ..\Hardware\spi.c                        0x00000000   Number         0  spi.o ABSOLUTE
    ..\Hardware\timer.c                      0x00000000   Number         0  timer.o ABSOLUTE
    ..\MultiMediaFile\PictureLib.c           0x00000000   Number         0  picturelib.o ABSOLUTE
    ..\MultiMediaFile\fmt_jpeg.c             0x00000000   Number         0  fmt_jpeg.o ABSOLUTE
    ..\STM32F10x_FWLib\src\misc.c            0x00000000   Number         0  misc.o ABSOLUTE
    ..\STM32F10x_FWLib\src\stm32f10x_adc.c   0x00000000   Number         0  stm32f10x_adc.o ABSOLUTE
    ..\STM32F10x_FWLib\src\stm32f10x_dma.c   0x00000000   Number         0  stm32f10x_dma.o ABSOLUTE
    ..\STM32F10x_FWLib\src\stm32f10x_exti.c  0x00000000   Number         0  stm32f10x_exti.o ABSOLUTE
    ..\STM32F10x_FWLib\src\stm32f10x_gpio.c  0x00000000   Number         0  stm32f10x_gpio.o ABSOLUTE
    ..\STM32F10x_FWLib\src\stm32f10x_rcc.c   0x00000000   Number         0  stm32f10x_rcc.o ABSOLUTE
    ..\STM32F10x_FWLib\src\stm32f10x_sdio.c  0x00000000   Number         0  stm32f10x_sdio.o ABSOLUTE
    ..\STM32F10x_FWLib\src\stm32f10x_spi.c   0x00000000   Number         0  stm32f10x_spi.o ABSOLUTE
    ..\STM32F10x_FWLib\src\stm32f10x_tim.c   0x00000000   Number         0  stm32f10x_tim.o ABSOLUTE
    ..\STM32F10x_FWLib\src\stm32f10x_usart.c 0x00000000   Number         0  stm32f10x_usart.o ABSOLUTE
    ..\System\delay\delay.c                  0x00000000   Number         0  delay.o ABSOLUTE
    ..\System\sys\sys.c                      0x00000000   Number         0  sys.o ABSOLUTE
    ..\System\usart\usart.c                  0x00000000   Number         0  usart.o ABSOLUTE
    ..\USB_slave\STM32_USB-FS-Device_Driver\src\usb_core.c 0x00000000   Number         0  usb_core.o ABSOLUTE
    ..\USB_slave\STM32_USB-FS-Device_Driver\src\usb_init.c 0x00000000   Number         0  usb_init.o ABSOLUTE
    ..\USB_slave\STM32_USB-FS-Device_Driver\src\usb_int.c 0x00000000   Number         0  usb_int.o ABSOLUTE
    ..\USB_slave\STM32_USB-FS-Device_Driver\src\usb_mem.c 0x00000000   Number         0  usb_mem.o ABSOLUTE
    ..\USB_slave\STM32_USB-FS-Device_Driver\src\usb_regs.c 0x00000000   Number         0  usb_regs.o ABSOLUTE
    ..\USB_slave\STM32_USB-FS-Device_Driver\src\usb_sil.c 0x00000000   Number         0  usb_sil.o ABSOLUTE
    ..\USB_slave\STM32_USB_Mouse_example\hw_config.c 0x00000000   Number         0  hw_config.o ABSOLUTE
    ..\USB_slave\STM32_USB_Mouse_example\usb_desc.c 0x00000000   Number         0  usb_desc.o ABSOLUTE
    ..\USB_slave\STM32_USB_Mouse_example\usb_endp.c 0x00000000   Number         0  usb_endp.o ABSOLUTE
    ..\USB_slave\STM32_USB_Mouse_example\usb_istr.c 0x00000000   Number         0  usb_istr.o ABSOLUTE
    ..\USB_slave\STM32_USB_Mouse_example\usb_prop.c 0x00000000   Number         0  usb_prop.o ABSOLUTE
    ..\USB_slave\STM32_USB_Mouse_example\usb_pwr.c 0x00000000   Number         0  usb_pwr.o ABSOLUTE
    ..\\Core\\core_cm3.c                     0x00000000   Number         0  core_cm3.o ABSOLUTE
    ..\\System\\sys\\sys.c                   0x00000000   Number         0  sys.o ABSOLUTE
    cdcmple.s                                0x00000000   Number         0  cdcmple.o ABSOLUTE
    cdrcmple.s                               0x00000000   Number         0  cdrcmple.o ABSOLUTE
    cfcmple.s                                0x00000000   Number         0  cfcmple.o ABSOLUTE
    dc.s                                     0x00000000   Number         0  dc.o ABSOLUTE
    handlers.s                               0x00000000   Number         0  handlers.o ABSOLUTE
    init.s                                   0x00000000   Number         0  init.o ABSOLUTE
    main.c                                   0x00000000   Number         0  main.o ABSOLUTE
    stm32f10x_it.c                           0x00000000   Number         0  stm32f10x_it.o ABSOLUTE
    system_stm32f10x.c                       0x00000000   Number         0  system_stm32f10x.o ABSOLUTE
    RESET                                    0x08000000   Section      304  startup_stm32f10x_hd.o(RESET)
    .ARM.Collect$$$$00000000                 0x08000130   Section        0  entry.o(.ARM.Collect$$$$00000000)
    .ARM.Collect$$$$00000001                 0x08000130   Section        4  entry2.o(.ARM.Collect$$$$00000001)
    .ARM.Collect$$$$00000004                 0x08000134   Section        4  entry5.o(.ARM.Collect$$$$00000004)
    .ARM.Collect$$$$00000008                 0x08000138   Section        0  entry7b.o(.ARM.Collect$$$$00000008)
    .ARM.Collect$$$$0000000A                 0x08000138   Section        0  entry8b.o(.ARM.Collect$$$$0000000A)
    .ARM.Collect$$$$0000000B                 0x08000138   Section        8  entry9a.o(.ARM.Collect$$$$0000000B)
    .ARM.Collect$$$$0000000D                 0x08000140   Section        0  entry10a.o(.ARM.Collect$$$$0000000D)
    .ARM.Collect$$$$0000000F                 0x08000140   Section        0  entry11a.o(.ARM.Collect$$$$0000000F)
    .ARM.Collect$$$$00002712                 0x08000140   Section        4  entry2.o(.ARM.Collect$$$$00002712)
    __lit__00000000                          0x08000140   Data           4  entry2.o(.ARM.Collect$$$$00002712)
    .text                                    0x08000144   Section       36  startup_stm32f10x_hd.o(.text)
    .text                                    0x08000168   Section        0  uldiv.o(.text)
    .text                                    0x080001ca   Section        0  memcpya.o(.text)
    .text                                    0x080001ee   Section        0  memseta.o(.text)
    .text                                    0x08000212   Section        0  strstr.o(.text)
    .text                                    0x08000236   Section        0  strncpy.o(.text)
    .text                                    0x0800024e   Section        0  strlen.o(.text)
    .text                                    0x0800025c   Section        0  fmul.o(.text)
    .text                                    0x080002c0   Section        0  fdiv.o(.text)
    .text                                    0x0800033c   Section        0  dadd.o(.text)
    .text                                    0x0800048a   Section        0  dmul.o(.text)
    .text                                    0x0800056e   Section        0  fflti.o(.text)
    .text                                    0x08000580   Section        0  ffltui.o(.text)
    .text                                    0x0800058a   Section        0  dflti.o(.text)
    .text                                    0x080005ac   Section        0  ffixui.o(.text)
    .text                                    0x080005d4   Section        0  dfixi.o(.text)
    .text                                    0x08000612   Section        0  dfixui.o(.text)
    .text                                    0x08000644   Section        0  f2d.o(.text)
    .text                                    0x0800066c   Section       48  cdcmple.o(.text)
    .text                                    0x0800069c   Section       48  cdrcmple.o(.text)
    .text                                    0x080006cc   Section        0  d2f.o(.text)
    .text                                    0x08000704   Section       20  cfcmple.o(.text)
    .text                                    0x08000718   Section        0  llshl.o(.text)
    .text                                    0x08000736   Section        0  llushr.o(.text)
    .text                                    0x08000756   Section        0  llsshr.o(.text)
    .text                                    0x0800077a   Section        0  iusefp.o(.text)
    .text                                    0x0800077a   Section        0  fepilogue.o(.text)
    .text                                    0x080007e8   Section        0  depilogue.o(.text)
    .text                                    0x080008a4   Section       36  init.o(.text)
    .text                                    0x080008c8   Section        0  __dczerorl2.o(.text)
    i.ADC_Cmd                                0x0800091e   Section        0  stm32f10x_adc.o(i.ADC_Cmd)
    i.ADC_DMACmd                             0x08000934   Section        0  stm32f10x_adc.o(i.ADC_DMACmd)
    i.ADC_DeInit                             0x0800094c   Section        0  stm32f10x_adc.o(i.ADC_DeInit)
    i.ADC_GetCalibrationStatus               0x080009a8   Section        0  stm32f10x_adc.o(i.ADC_GetCalibrationStatus)
    i.ADC_GetResetCalibrationStatus          0x080009bc   Section        0  stm32f10x_adc.o(i.ADC_GetResetCalibrationStatus)
    i.ADC_Init                               0x080009d0   Section        0  stm32f10x_adc.o(i.ADC_Init)
    i.ADC_RegularChannelConfig               0x08000a20   Section        0  stm32f10x_adc.o(i.ADC_RegularChannelConfig)
    i.ADC_ResetCalibration                   0x08000ad8   Section        0  stm32f10x_adc.o(i.ADC_ResetCalibration)
    i.ADC_SoftwareStartConvCmd               0x08000ae2   Section        0  stm32f10x_adc.o(i.ADC_SoftwareStartConvCmd)
    i.ADC_StartCalibration                   0x08000af8   Section        0  stm32f10x_adc.o(i.ADC_StartCalibration)
    i.Build_Huffman_Table_SD                 0x08000b04   Section        0  fmt_jpeg.o(i.Build_Huffman_Table_SD)
    i.BusFault_Handler                       0x08000d28   Section        0  stm32f10x_it.o(i.BusFault_Handler)
    i.ByteSwap                               0x08000d2c   Section        0  usb_regs.o(i.ByteSwap)
    i.CTR_LP                                 0x08000d38   Section        0  usb_int.o(i.CTR_LP)
    i.ClearDTOG_RX                           0x08000fc0   Section        0  usb_regs.o(i.ClearDTOG_RX)
    i.ClearDTOG_TX                           0x08000ff4   Section        0  usb_regs.o(i.ClearDTOG_TX)
    i.Clear_Status_Out                       0x08001028   Section        0  usb_regs.o(i.Clear_Status_Out)
    i.CmdError                               0x08001050   Section        0  sdio_sdcard.o(i.CmdError)
    CmdError                                 0x08001051   Thumb Code    44  sdio_sdcard.o(i.CmdError)
    i.CmdResp1Error                          0x0800107c   Section        0  sdio_sdcard.o(i.CmdResp1Error)
    CmdResp1Error                            0x0800107d   Thumb Code   298  sdio_sdcard.o(i.CmdResp1Error)
    i.CmdResp2Error                          0x080011b0   Section        0  sdio_sdcard.o(i.CmdResp2Error)
    CmdResp2Error                            0x080011b1   Thumb Code    70  sdio_sdcard.o(i.CmdResp2Error)
    i.CmdResp3Error                          0x080011fc   Section        0  sdio_sdcard.o(i.CmdResp3Error)
    CmdResp3Error                            0x080011fd   Thumb Code    52  sdio_sdcard.o(i.CmdResp3Error)
    i.CmdResp6Error                          0x08001234   Section        0  sdio_sdcard.o(i.CmdResp6Error)
    CmdResp6Error                            0x08001235   Thumb Code   152  sdio_sdcard.o(i.CmdResp6Error)
    i.CmdResp7Error                          0x080012d0   Section        0  sdio_sdcard.o(i.CmdResp7Error)
    CmdResp7Error                            0x080012d1   Thumb Code    72  sdio_sdcard.o(i.CmdResp7Error)
    i.DMA_ClearFlag                          0x0800131c   Section        0  stm32f10x_dma.o(i.DMA_ClearFlag)
    i.DMA_Cmd                                0x08001338   Section        0  stm32f10x_dma.o(i.DMA_Cmd)
    i.DMA_DeInit                             0x08001350   Section        0  stm32f10x_dma.o(i.DMA_DeInit)
    i.DMA_GetFlagStatus                      0x0800149c   Section        0  stm32f10x_dma.o(i.DMA_GetFlagStatus)
    i.DMA_Init                               0x080014c8   Section        0  stm32f10x_dma.o(i.DMA_Init)
    i.DataStageIn                            0x08001504   Section        0  usb_core.o(i.DataStageIn)
    DataStageIn                              0x08001505   Thumb Code   166  usb_core.o(i.DataStageIn)
    i.DataStageOut                           0x080015c4   Section        0  usb_core.o(i.DataStageOut)
    DataStageOut                             0x080015c5   Thumb Code   166  usb_core.o(i.DataStageOut)
    i.Data_Setup0                            0x08001680   Section        0  usb_core.o(i.Data_Setup0)
    Data_Setup0                              0x08001681   Thumb Code   628  usb_core.o(i.Data_Setup0)
    i.DebugMon_Handler                       0x08001918   Section        0  stm32f10x_it.o(i.DebugMon_Handler)
    i.Dec_JPEG_to_YuvRgb                     0x0800191c   Section        0  fmt_jpeg.o(i.Dec_JPEG_to_YuvRgb)
    i.EP1_IN_Callback                        0x08003138   Section        0  usb_endp.o(i.EP1_IN_Callback)
    i.EXTI15_10_IRQHandler                   0x08003144   Section        0  irqhandler.o(i.EXTI15_10_IRQHandler)
    i.EXTI3_IRQHandler                       0x080031b8   Section        0  irqhandler.o(i.EXTI3_IRQHandler)
    i.EXTI4_IRQHandler                       0x080031f0   Section        0  si24r1.o(i.EXTI4_IRQHandler)
    i.EXTI9_5_IRQHandler                     0x0800320c   Section        0  irqhandler.o(i.EXTI9_5_IRQHandler)
    i.EXTI_ClearITPendingBit                 0x08003248   Section        0  stm32f10x_exti.o(i.EXTI_ClearITPendingBit)
    i.EXTI_GetITStatus                       0x08003254   Section        0  stm32f10x_exti.o(i.EXTI_GetITStatus)
    i.EXTI_Init                              0x0800327c   Section        0  stm32f10x_exti.o(i.EXTI_Init)
    i.Enter_LowPowerMode                     0x08003310   Section        0  hw_config.o(i.Enter_LowPowerMode)
    i.FindSCR                                0x0800331c   Section        0  sdio_sdcard.o(i.FindSCR)
    FindSCR                                  0x0800331d   Thumb Code   386  sdio_sdcard.o(i.FindSCR)
    i.GPIO_EXTILineConfig                    0x080034b0   Section        0  stm32f10x_gpio.o(i.GPIO_EXTILineConfig)
    i.GPIO_Init                              0x080034f0   Section        0  stm32f10x_gpio.o(i.GPIO_Init)
    i.GPIO_ReadInputDataBit                  0x08003606   Section        0  stm32f10x_gpio.o(i.GPIO_ReadInputDataBit)
    i.GPIO_ResetBits                         0x08003618   Section        0  stm32f10x_gpio.o(i.GPIO_ResetBits)
    i.GPIO_SetBits                           0x0800361c   Section        0  stm32f10x_gpio.o(i.GPIO_SetBits)
    i.GetEPRxAddr                            0x08003620   Section        0  usb_regs.o(i.GetEPRxAddr)
    i.GetEPTxAddr                            0x08003640   Section        0  usb_regs.o(i.GetEPTxAddr)
    i.Get_SerialNum                          0x08003660   Section        0  hw_config.o(i.Get_SerialNum)
    i.HardFault_Handler                      0x08003694   Section        0  stm32f10x_it.o(i.HardFault_Handler)
    i.In0_Process                            0x08003698   Section        0  usb_core.o(i.In0_Process)
    i.IntToUnicode                           0x08003708   Section        0  hw_config.o(i.IntToUnicode)
    IntToUnicode                             0x08003709   Thumb Code    62  hw_config.o(i.IntToUnicode)
    i.Inverse_DCT                            0x08003748   Section        0  fmt_jpeg.o(i.Inverse_DCT)
    i.Joystick_Data_Setup                    0x08003864   Section        0  usb_prop.o(i.Joystick_Data_Setup)
    i.Joystick_GetConfigDescriptor           0x080038e0   Section        0  usb_prop.o(i.Joystick_GetConfigDescriptor)
    i.Joystick_GetDeviceDescriptor           0x080038f4   Section        0  usb_prop.o(i.Joystick_GetDeviceDescriptor)
    i.Joystick_GetHIDDescriptor              0x08003908   Section        0  usb_prop.o(i.Joystick_GetHIDDescriptor)
    i.Joystick_GetProtocolValue              0x0800391c   Section        0  usb_prop.o(i.Joystick_GetProtocolValue)
    i.Joystick_GetReportDescriptor           0x08003938   Section        0  usb_prop.o(i.Joystick_GetReportDescriptor)
    i.Joystick_GetStringDescriptor           0x0800394c   Section        0  usb_prop.o(i.Joystick_GetStringDescriptor)
    i.Joystick_Get_Interface_Setting         0x08003974   Section        0  usb_prop.o(i.Joystick_Get_Interface_Setting)
    i.Joystick_NoData_Setup                  0x0800398c   Section        0  usb_prop.o(i.Joystick_NoData_Setup)
    i.Joystick_Reset                         0x080039b0   Section        0  usb_prop.o(i.Joystick_Reset)
    i.Joystick_Send                          0x08003a54   Section        0  hw_config.o(i.Joystick_Send)
    i.Joystick_SetConfiguration              0x08003a84   Section        0  usb_prop.o(i.Joystick_SetConfiguration)
    i.Joystick_SetDeviceAddress              0x08003a9c   Section        0  usb_prop.o(i.Joystick_SetDeviceAddress)
    i.Joystick_SetProtocol                   0x08003aa8   Section        0  usb_prop.o(i.Joystick_SetProtocol)
    i.Joystick_Status_In                     0x08003ac0   Section        0  usb_prop.o(i.Joystick_Status_In)
    i.Joystick_Status_Out                    0x08003ac2   Section        0  usb_prop.o(i.Joystick_Status_Out)
    i.Joystick_init                          0x08003ac4   Section        0  usb_prop.o(i.Joystick_init)
    i.Leave_LowPowerMode                     0x08003aec   Section        0  hw_config.o(i.Leave_LowPowerMode)
    i.Lithium_Battery_percent                0x08003b0c   Section        0  adc.o(i.Lithium_Battery_percent)
    i.MemManage_Handler                      0x08003d5c   Section        0  stm32f10x_it.o(i.MemManage_Handler)
    i.NMI_Handler                            0x08003d60   Section        0  stm32f10x_it.o(i.NMI_Handler)
    i.NOP_Process                            0x08003d62   Section        0  usb_core.o(i.NOP_Process)
    i.NVIC_Init                              0x08003d64   Section        0  misc.o(i.NVIC_Init)
    i.NVIC_PriorityGroupConfig               0x08003dd4   Section        0  misc.o(i.NVIC_PriorityGroupConfig)
    i.NoData_Setup0                          0x08003de8   Section        0  usb_core.o(i.NoData_Setup0)
    NoData_Setup0                            0x08003de9   Thumb Code   290  usb_core.o(i.NoData_Setup0)
    i.Out0_Process                           0x08003f20   Section        0  usb_core.o(i.Out0_Process)
    i.PMAToUserBufferCopy                    0x08003f70   Section        0  usb_mem.o(i.PMAToUserBufferCopy)
    i.PendSV_Handler                         0x08003f98   Section        0  stm32f10x_it.o(i.PendSV_Handler)
    i.Post0_Process                          0x08003f9c   Section        0  usb_core.o(i.Post0_Process)
    i.PowerOn                                0x08003fe4   Section        0  usb_pwr.o(i.PowerOn)
    i.RCC_ADCCLKConfig                       0x08004024   Section        0  stm32f10x_rcc.o(i.RCC_ADCCLKConfig)
    i.RCC_AHBPeriphClockCmd                  0x0800403c   Section        0  stm32f10x_rcc.o(i.RCC_AHBPeriphClockCmd)
    i.RCC_APB1PeriphClockCmd                 0x0800405c   Section        0  stm32f10x_rcc.o(i.RCC_APB1PeriphClockCmd)
    i.RCC_APB2PeriphClockCmd                 0x0800407c   Section        0  stm32f10x_rcc.o(i.RCC_APB2PeriphClockCmd)
    i.RCC_APB2PeriphResetCmd                 0x0800409c   Section        0  stm32f10x_rcc.o(i.RCC_APB2PeriphResetCmd)
    i.RCC_USBCLKConfig                       0x080040bc   Section        0  stm32f10x_rcc.o(i.RCC_USBCLKConfig)
    i.Resume                                 0x080040c8   Section        0  usb_pwr.o(i.Resume)
    i.Resume_Init                            0x08004198   Section        0  usb_pwr.o(i.Resume_Init)
    i.SDEnWideBus                            0x080041bc   Section        0  sdio_sdcard.o(i.SDEnWideBus)
    SDEnWideBus                              0x080041bd   Thumb Code   258  sdio_sdcard.o(i.SDEnWideBus)
    i.SDIO_ClearFlag                         0x080042c8   Section        0  stm32f10x_sdio.o(i.SDIO_ClearFlag)
    i.SDIO_ClearITPendingBit                 0x080042d4   Section        0  stm32f10x_sdio.o(i.SDIO_ClearITPendingBit)
    i.SDIO_ClockCmd                          0x080042e0   Section        0  stm32f10x_sdio.o(i.SDIO_ClockCmd)
    i.SDIO_DMACmd                            0x080042ec   Section        0  stm32f10x_sdio.o(i.SDIO_DMACmd)
    i.SDIO_DataConfig                        0x080042f8   Section        0  stm32f10x_sdio.o(i.SDIO_DataConfig)
    i.SDIO_DeInit                            0x08004328   Section        0  stm32f10x_sdio.o(i.SDIO_DeInit)
    i.SDIO_GetCommandResponse                0x0800434c   Section        0  stm32f10x_sdio.o(i.SDIO_GetCommandResponse)
    i.SDIO_GetFlagStatus                     0x08004358   Section        0  stm32f10x_sdio.o(i.SDIO_GetFlagStatus)
    i.SDIO_GetPowerState                     0x08004370   Section        0  stm32f10x_sdio.o(i.SDIO_GetPowerState)
    i.SDIO_GetResponse                       0x08004380   Section        0  stm32f10x_sdio.o(i.SDIO_GetResponse)
    i.SDIO_IRQHandler                        0x08004398   Section        0  irqhandler.o(i.SDIO_IRQHandler)
    i.SDIO_ITConfig                          0x080043a0   Section        0  stm32f10x_sdio.o(i.SDIO_ITConfig)
    i.SDIO_Init                              0x080043c0   Section        0  stm32f10x_sdio.o(i.SDIO_Init)
    i.SDIO_NVIC_Config                       0x080043f0   Section        0  sdio_sdcard.o(i.SDIO_NVIC_Config)
    SDIO_NVIC_Config                         0x080043f1   Thumb Code    32  sdio_sdcard.o(i.SDIO_NVIC_Config)
    i.SDIO_ReadData                          0x08004410   Section        0  stm32f10x_sdio.o(i.SDIO_ReadData)
    i.SDIO_SD_GPIO_Config                    0x0800441c   Section        0  sdio_sdcard.o(i.SDIO_SD_GPIO_Config)
    SDIO_SD_GPIO_Config                      0x0800441d   Thumb Code    92  sdio_sdcard.o(i.SDIO_SD_GPIO_Config)
    i.SDIO_SendCommand                       0x08004484   Section        0  stm32f10x_sdio.o(i.SDIO_SendCommand)
    i.SDIO_SetPowerState                     0x080044b0   Section        0  stm32f10x_sdio.o(i.SDIO_SetPowerState)
    i.SD_DMA_RxConfig                        0x080044cc   Section        0  sdio_sdcard.o(i.SD_DMA_RxConfig)
    SD_DMA_RxConfig                          0x080044cd   Thumb Code    86  sdio_sdcard.o(i.SD_DMA_RxConfig)
    i.SD_DMA_TxConfig                        0x08004530   Section        0  sdio_sdcard.o(i.SD_DMA_TxConfig)
    SD_DMA_TxConfig                          0x08004531   Thumb Code    86  sdio_sdcard.o(i.SD_DMA_TxConfig)
    i.SD_EnableWideBusOperation              0x08004594   Section        0  sdio_sdcard.o(i.SD_EnableWideBusOperation)
    i.SD_GetCardInfo                         0x08004628   Section        0  sdio_sdcard.o(i.SD_GetCardInfo)
    i.SD_GetState                            0x080048f0   Section        0  sdio_sdcard.o(i.SD_GetState)
    i.SD_GetStatus                           0x0800490a   Section        0  sdio_sdcard.o(i.SD_GetStatus)
    i.SD_Init                                0x08004928   Section        0  sdio_sdcard.o(i.SD_Init)
    i.SD_InitializeCards                     0x080049d8   Section        0  sdio_sdcard.o(i.SD_InitializeCards)
    i.SD_PowerON                             0x08004b00   Section        0  sdio_sdcard.o(i.SD_PowerON)
    i.SD_ProcessIRQSrc                       0x08004c90   Section        0  sdio_sdcard.o(i.SD_ProcessIRQSrc)
    i.SD_ReadMultiBlocks                     0x08004ce8   Section        0  sdio_sdcard.o(i.SD_ReadMultiBlocks)
    i.SD_SelectDeselect                      0x08004dd0   Section        0  sdio_sdcard.o(i.SD_SelectDeselect)
    i.SD_SendStatus                          0x08004e04   Section        0  sdio_sdcard.o(i.SD_SendStatus)
    i.SD_WaitReadOperation                   0x08004e3c   Section        0  sdio_sdcard.o(i.SD_WaitReadOperation)
    i.SD_WaitWriteOperation                  0x08004e7c   Section        0  sdio_sdcard.o(i.SD_WaitWriteOperation)
    i.SD_WriteBlock                          0x08004ebc   Section        0  sdio_sdcard.o(i.SD_WriteBlock)
    i.SD_WriteMultiBlocks                    0x08004f98   Section        0  sdio_sdcard.o(i.SD_WriteMultiBlocks)
    i.SPI1_Init                              0x080050e0   Section        0  spi.o(i.SPI1_Init)
    i.SPI1_ReadWriteByte                     0x08005158   Section        0  spi.o(i.SPI1_ReadWriteByte)
    i.SPI2_Init                              0x080051ac   Section        0  spi.o(i.SPI2_Init)
    i.SPI2_ReadWriteByte                     0x08005228   Section        0  spi.o(i.SPI2_ReadWriteByte)
    i.SPI_Cmd                                0x0800527c   Section        0  stm32f10x_spi.o(i.SPI_Cmd)
    i.SPI_I2S_GetFlagStatus                  0x08005294   Section        0  stm32f10x_spi.o(i.SPI_I2S_GetFlagStatus)
    i.SPI_I2S_ReceiveData                    0x080052a6   Section        0  stm32f10x_spi.o(i.SPI_I2S_ReceiveData)
    i.SPI_I2S_SendData                       0x080052ac   Section        0  stm32f10x_spi.o(i.SPI_I2S_SendData)
    i.SPI_Init                               0x080052b0   Section        0  stm32f10x_spi.o(i.SPI_Init)
    i.SVC_Handler                            0x080052ec   Section        0  stm32f10x_it.o(i.SVC_Handler)
    i.SetBTABLE                              0x080052f0   Section        0  usb_regs.o(i.SetBTABLE)
    i.SetDeviceAddress                       0x08005300   Section        0  usb_core.o(i.SetDeviceAddress)
    i.SetEPRxAddr                            0x08005350   Section        0  usb_regs.o(i.SetEPRxAddr)
    i.SetEPRxCount                           0x08005374   Section        0  usb_regs.o(i.SetEPRxCount)
    i.SetEPRxStatus                          0x080053c0   Section        0  usb_regs.o(i.SetEPRxStatus)
    i.SetEPRxValid                           0x08005400   Section        0  usb_regs.o(i.SetEPRxValid)
    i.SetEPTxAddr                            0x08005434   Section        0  usb_regs.o(i.SetEPTxAddr)
    i.SetEPTxCount                           0x08005454   Section        0  usb_regs.o(i.SetEPTxCount)
    i.SetEPTxStatus                          0x08005470   Section        0  usb_regs.o(i.SetEPTxStatus)
    i.SetEPTxValid                           0x080054b0   Section        0  usb_regs.o(i.SetEPTxValid)
    i.SetEPType                              0x080054e4   Section        0  usb_regs.o(i.SetEPType)
    i.SetSysClock                            0x08005508   Section        0  system_stm32f10x.o(i.SetSysClock)
    SetSysClock                              0x08005509   Thumb Code     8  system_stm32f10x.o(i.SetSysClock)
    i.SetSysClockTo72                        0x08005510   Section        0  system_stm32f10x.o(i.SetSysClockTo72)
    SetSysClockTo72                          0x08005511   Thumb Code   214  system_stm32f10x.o(i.SetSysClockTo72)
    i.Set_USBClock                           0x080055f0   Section        0  hw_config.o(i.Set_USBClock)
    i.Setup0_Process                         0x08005604   Section        0  usb_core.o(i.Setup0_Process)
    i.Standard_ClearFeature                  0x080056bc   Section        0  usb_core.o(i.Standard_ClearFeature)
    i.Standard_GetConfiguration              0x08005828   Section        0  usb_core.o(i.Standard_GetConfiguration)
    i.Standard_GetDescriptorData             0x08005854   Section        0  usb_core.o(i.Standard_GetDescriptorData)
    i.Standard_GetInterface                  0x08005878   Section        0  usb_core.o(i.Standard_GetInterface)
    i.Standard_GetStatus                     0x080058a4   Section        0  usb_core.o(i.Standard_GetStatus)
    i.Standard_SetConfiguration              0x080059a4   Section        0  usb_core.o(i.Standard_SetConfiguration)
    i.Standard_SetDeviceFeature              0x080059ec   Section        0  usb_core.o(i.Standard_SetDeviceFeature)
    i.Standard_SetEndPointFeature            0x08005a14   Section        0  usb_core.o(i.Standard_SetEndPointFeature)
    i.Standard_SetInterface                  0x08005ae4   Section        0  usb_core.o(i.Standard_SetInterface)
    i.Suspend                                0x08005b50   Section        0  usb_pwr.o(i.Suspend)
    i.SysTick_CLKSourceConfig                0x08005bec   Section        0  misc.o(i.SysTick_CLKSourceConfig)
    i.SysTick_Handler                        0x08005c14   Section        0  stm32f10x_it.o(i.SysTick_Handler)
    i.SystemInit                             0x08005c18   Section        0  system_stm32f10x.o(i.SystemInit)
    i.TIM3_Config_Init                       0x08005c78   Section        0  timer.o(i.TIM3_Config_Init)
    i.TIM3_IRQHandler                        0x08005cd8   Section        0  irqhandler.o(i.TIM3_IRQHandler)
    i.TIM_ClearITPendingBit                  0x08005d90   Section        0  stm32f10x_tim.o(i.TIM_ClearITPendingBit)
    i.TIM_Cmd                                0x08005d96   Section        0  stm32f10x_tim.o(i.TIM_Cmd)
    i.TIM_GetITStatus                        0x08005dae   Section        0  stm32f10x_tim.o(i.TIM_GetITStatus)
    i.TIM_ITConfig                           0x08005dd0   Section        0  stm32f10x_tim.o(i.TIM_ITConfig)
    i.TIM_TimeBaseInit                       0x08005de4   Section        0  stm32f10x_tim.o(i.TIM_TimeBaseInit)
    i.USART1_IRQHandler                      0x08005e88   Section        0  usart.o(i.USART1_IRQHandler)
    i.USART_GetITStatus                      0x08005f10   Section        0  stm32f10x_usart.o(i.USART_GetITStatus)
    i.USART_ReceiveData                      0x08005f64   Section        0  stm32f10x_usart.o(i.USART_ReceiveData)
    i.USBWakeUp_IRQHandler                   0x08005f6e   Section        0  irqhandler.o(i.USBWakeUp_IRQHandler)
    i.USB_Cable_Config                       0x08005f7a   Section        0  hw_config.o(i.USB_Cable_Config)
    i.USB_Init                               0x08005f7c   Section        0  usb_init.o(i.USB_Init)
    i.USB_Interrupts_Config                  0x08005fb8   Section        0  hw_config.o(i.USB_Interrupts_Config)
    i.USB_Istr                               0x0800600c   Section        0  usb_istr.o(i.USB_Istr)
    i.USB_LP_CAN1_RX0_IRQHandler             0x080061d8   Section        0  irqhandler.o(i.USB_LP_CAN1_RX0_IRQHandler)
    i.USB_Port_Set                           0x080061e0   Section        0  hw_config.o(i.USB_Port_Set)
    i.USB_SIL_Init                           0x08006238   Section        0  usb_sil.o(i.USB_SIL_Init)
    i.USB_SIL_Write                          0x0800625c   Section        0  usb_sil.o(i.USB_SIL_Write)
    i.UsageFault_Handler                     0x0800628a   Section        0  stm32f10x_it.o(i.UsageFault_Handler)
    i.UserToPMABufferCopy                    0x08006290   Section        0  usb_mem.o(i.UserToPMABufferCopy)
    i.__0sprintf$2                           0x080062c8   Section        0  printf2.o(i.__0sprintf$2)
    i.__scatterload_copy                     0x080062f0   Section       14  handlers.o(i.__scatterload_copy)
    i.__scatterload_null                     0x080062fe   Section        2  handlers.o(i.__scatterload_null)
    i.__scatterload_zeroinit                 0x08006300   Section       14  handlers.o(i.__scatterload_zeroinit)
    i._printf_core                           0x0800630e   Section        0  printf2.o(i._printf_core)
    _printf_core                             0x0800630f   Thumb Code   214  printf2.o(i._printf_core)
    i._sputc                                 0x080063e4   Section        0  printf2.o(i._sputc)
    _sputc                                   0x080063e5   Thumb Code    10  printf2.o(i._sputc)
    i.adc1_init                              0x080063f0   Section        0  adc.o(i.adc1_init)
    i.adc_dma_start                          0x0800650c   Section        0  adc.o(i.adc_dma_start)
    i.check_fs                               0x08006528   Section        0  ff.o(i.check_fs)
    check_fs                                 0x08006529   Thumb Code   140  ff.o(i.check_fs)
    i.chk_chr                                0x080065b8   Section        0  ff.o(i.chk_chr)
    chk_chr                                  0x080065b9   Thumb Code    20  ff.o(i.chk_chr)
    i.clmt_clust                             0x080065cc   Section        0  ff.o(i.clmt_clust)
    clmt_clust                               0x080065cd   Thumb Code    50  ff.o(i.clmt_clust)
    i.clust2sect                             0x080065fe   Section        0  ff.o(i.clust2sect)
    i.cmp_lfn                                0x08006618   Section        0  ff.o(i.cmp_lfn)
    cmp_lfn                                  0x08006619   Thumb Code   154  ff.o(i.cmp_lfn)
    i.create_chain                           0x080066b8   Section        0  ff.o(i.create_chain)
    create_chain                             0x080066b9   Thumb Code   214  ff.o(i.create_chain)
    i.create_name                            0x08006790   Section        0  ff.o(i.create_name)
    create_name                              0x08006791   Thumb Code   534  ff.o(i.create_name)
    i.delay_init                             0x080069c0   Section        0  delay.o(i.delay_init)
    i.delay_ms                               0x08006a04   Section        0  delay.o(i.delay_ms)
    i.dir_alloc                              0x08006a50   Section        0  ff.o(i.dir_alloc)
    dir_alloc                                0x08006a51   Thumb Code    92  ff.o(i.dir_alloc)
    i.dir_find                               0x08006aac   Section        0  ff.o(i.dir_find)
    dir_find                                 0x08006aad   Thumb Code   234  ff.o(i.dir_find)
    i.dir_next                               0x08006b96   Section        0  ff.o(i.dir_next)
    dir_next                                 0x08006b97   Thumb Code   270  ff.o(i.dir_next)
    i.dir_read                               0x08006ca4   Section        0  ff.o(i.dir_read)
    dir_read                                 0x08006ca5   Thumb Code   198  ff.o(i.dir_read)
    i.dir_register                           0x08006d6a   Section        0  ff.o(i.dir_register)
    dir_register                             0x08006d6b   Thumb Code   298  ff.o(i.dir_register)
    i.dir_sdi                                0x08006e94   Section        0  ff.o(i.dir_sdi)
    dir_sdi                                  0x08006e95   Thumb Code   158  ff.o(i.dir_sdi)
    i.disk_initialize                        0x08006f32   Section        0  diskio.o(i.disk_initialize)
    i.disk_ioctl                             0x08006f50   Section        0  diskio.o(i.disk_ioctl)
    i.disk_read                              0x08006fa8   Section        0  diskio.o(i.disk_read)
    i.disk_status                            0x08007060   Section        0  diskio.o(i.disk_status)
    i.disk_write                             0x08007070   Section        0  diskio.o(i.disk_write)
    i.dma_config                             0x08007144   Section        0  dma.o(i.dma_config)
    i.ef_FileList_iteration                  0x08007198   Section        0  extfunc.o(i.ef_FileList_iteration)
    i.ef_SD_GetGbkMatrix                     0x0800763c   Section        0  extfunc.o(i.ef_SD_GetGbkMatrix)
    i.ef_check_extension                     0x080077c8   Section        0  extfunc.o(i.ef_check_extension)
    i.ef_checkfile                           0x08007918   Section        0  extfunc.o(i.ef_checkfile)
    i.ef_display_SDcapcity                   0x08007938   Section        0  extfunc.o(i.ef_display_SDcapcity)
    i.ef_display_filelist                    0x08007a80   Section        0  extfunc.o(i.ef_display_filelist)
    i.ef_getcapacity                         0x08007c00   Section        0  extfunc.o(i.ef_getcapacity)
    i.ef_multimedia_pic_bin                  0x08007c58   Section        0  extfunc.o(i.ef_multimedia_pic_bin)
    i.ef_multimedia_pic_bmp                  0x08008258   Section        0  picturelib.o(i.ef_multimedia_pic_bmp)
    i.ef_multimedia_pic_jpeg                 0x08008960   Section        0  picturelib.o(i.ef_multimedia_pic_jpeg)
    i.ef_multimedia_txt                      0x08008a94   Section        0  extfunc.o(i.ef_multimedia_txt)
    i.ef_scanfiles                           0x08008ba0   Section        0  extfunc.o(i.ef_scanfiles)
    i.exti_init                              0x08008c40   Section        0  exti.o(i.exti_init)
    i.f_close                                0x08008ce2   Section        0  ff.o(i.f_close)
    i.f_closedir                             0x08008d02   Section        0  ff.o(i.f_closedir)
    i.f_getfree                              0x08008d18   Section        0  ff.o(i.f_getfree)
    i.f_lseek                                0x08008e1a   Section        0  ff.o(i.f_lseek)
    i.f_mount                                0x080090c8   Section        0  ff.o(i.f_mount)
    i.f_open                                 0x08009124   Section        0  ff.o(i.f_open)
    i.f_opendir                              0x080092a0   Section        0  ff.o(i.f_opendir)
    i.f_read                                 0x08009312   Section        0  ff.o(i.f_read)
    i.f_readdir                              0x080094c2   Section        0  ff.o(i.f_readdir)
    i.f_stat                                 0x08009522   Section        0  ff.o(i.f_stat)
    i.f_sync                                 0x08009562   Section        0  ff.o(i.f_sync)
    i.f_write                                0x08009612   Section        0  ff.o(i.f_write)
    i.ff_convert                             0x080097fc   Section        0  ccsbcs.o(i.ff_convert)
    i.ff_wtoupper                            0x08009848   Section        0  ccsbcs.o(i.ff_wtoupper)
    i.find_volume                            0x080098a4   Section        0  ff.o(i.find_volume)
    find_volume                              0x080098a5   Thumb Code   900  ff.o(i.find_volume)
    i.fit_lfn                                0x08009c38   Section        0  ff.o(i.fit_lfn)
    fit_lfn                                  0x08009c39   Thumb Code   122  ff.o(i.fit_lfn)
    i.follow_path                            0x08009cb8   Section        0  ff.o(i.follow_path)
    follow_path                              0x08009cb9   Thumb Code   144  ff.o(i.follow_path)
    i.free                                   0x08009d48   Section        0  malloc.o(i.free)
    i.gen_numname                            0x08009d98   Section        0  ff.o(i.gen_numname)
    gen_numname                              0x08009d99   Thumb Code   176  ff.o(i.gen_numname)
    i.get_fat                                0x08009e4c   Section        0  ff.o(i.get_fat)
    i.get_fattime                            0x08009f40   Section        0  diskio.o(i.get_fattime)
    i.get_fileinfo                           0x08009f48   Section        0  ff.o(i.get_fileinfo)
    get_fileinfo                             0x08009f49   Thumb Code   258  ff.o(i.get_fileinfo)
    i.get_ldnumber                           0x0800a04a   Section        0  ff.o(i.get_ldnumber)
    get_ldnumber                             0x0800a04b   Thumb Code    72  ff.o(i.get_ldnumber)
    i.key_init                               0x0800a094   Section        0  key.o(i.key_init)
    i.ld_clust                               0x0800a100   Section        0  ff.o(i.ld_clust)
    ld_clust                                 0x0800a101   Thumb Code    32  ff.o(i.ld_clust)
    i.led_init                               0x0800a120   Section        0  led.o(i.led_init)
    i.main                                   0x0800a180   Section        0  main.o(i.main)
    i.malloc                                 0x0800b4bc   Section        0  malloc.o(i.malloc)
    i.mem_cmp                                0x0800b528   Section        0  ff.o(i.mem_cmp)
    mem_cmp                                  0x0800b529   Thumb Code    38  ff.o(i.mem_cmp)
    i.mem_cpy                                0x0800b54e   Section        0  ff.o(i.mem_cpy)
    mem_cpy                                  0x0800b54f   Thumb Code    26  ff.o(i.mem_cpy)
    i.mem_set                                0x0800b568   Section        0  ff.o(i.mem_set)
    mem_set                                  0x0800b569   Thumb Code    20  ff.o(i.mem_set)
    i.move_window                            0x0800b57c   Section        0  ff.o(i.move_window)
    move_window                              0x0800b57d   Thumb Code    52  ff.o(i.move_window)
    i.mypow                                  0x0800b5b0   Section        0  oled.o(i.mypow)
    i.oled_buffer_clear                      0x0800b5c8   Section        0  oled.o(i.oled_buffer_clear)
    i.oled_clear                             0x0800b5fc   Section        0  oled.o(i.oled_clear)
    i.oled_draw_line                         0x0800b610   Section        0  oled_mathpaint.o(i.oled_draw_line)
    i.oled_draw_point                        0x0800b6c8   Section        0  oled.o(i.oled_draw_point)
    i.oled_draw_rectangle                    0x0800b6e4   Section        0  oled_mathpaint.o(i.oled_draw_rectangle)
    i.oled_refresh                           0x0800b730   Section        0  oled.o(i.oled_refresh)
    i.oled_show_Bin_Array                    0x0800b77c   Section        0  oled.o(i.oled_show_Bin_Array)
    i.oled_show_GBK                          0x0800b8b0   Section        0  oled.o(i.oled_show_GBK)
    i.oled_show_char                         0x0800b988   Section        0  oled.o(i.oled_show_char)
    i.oled_show_float                        0x0800ba80   Section        0  oled.o(i.oled_show_float)
    i.oled_show_num_every0                   0x0800bc6e   Section        0  oled.o(i.oled_show_num_every0)
    i.oled_show_num_hide0                    0x0800bcee   Section        0  oled.o(i.oled_show_num_hide0)
    i.oled_show_string                       0x0800be62   Section        0  oled.o(i.oled_show_string)
    i.oled_spi_init                          0x0800c020   Section        0  oled.o(i.oled_spi_init)
    i.oled_ssd1351_init                      0x0800c07c   Section        0  oled.o(i.oled_ssd1351_init)
    i.oled_write_Byte                        0x0800c418   Section        0  oled.o(i.oled_write_Byte)
    i.pick_lfn                               0x0800c450   Section        0  ff.o(i.pick_lfn)
    pick_lfn                                 0x0800c451   Thumb Code   124  ff.o(i.pick_lfn)
    i.put_fat                                0x0800c4d0   Section        0  ff.o(i.put_fat)
    i.rd_BigEnd16                            0x0800c612   Section        0  fmt_jpeg.o(i.rd_BigEnd16)
    i.rd_SOF0_2get_size                      0x0800c624   Section        0  fmt_jpeg.o(i.rd_SOF0_2get_size)
    i.rd_restore_HuffBit_RLE_Mat             0x0800c71c   Section        0  fmt_jpeg.o(i.rd_restore_HuffBit_RLE_Mat)
    i.rd_restore_InvQuantize                 0x0800cd14   Section        0  fmt_jpeg.o(i.rd_restore_InvQuantize)
    i.remove_chain                           0x0800cda0   Section        0  ff.o(i.remove_chain)
    remove_chain                             0x0800cda1   Thumb Code   108  ff.o(i.remove_chain)
    i.rgb888_to_565                          0x0800ce0c   Section        0  fmt_jpeg.o(i.rgb888_to_565)
    i.round_double                           0x0800ce48   Section        0  fmt_jpeg.o(i.round_double)
    i.si24r1_TX_mode                         0x0800ce8c   Section        0  si24r1.o(i.si24r1_TX_mode)
    i.si24r1_TX_packet                       0x0800cf08   Section        0  si24r1.o(i.si24r1_TX_packet)
    i.si24r1_detect                          0x0800cf94   Section        0  si24r1.o(i.si24r1_detect)
    i.si24r1_read_buf                        0x0800cfe0   Section        0  si24r1.o(i.si24r1_read_buf)
    i.si24r1_read_once                       0x0800d018   Section        0  si24r1.o(i.si24r1_read_once)
    i.si24r1_spi_init                        0x0800d044   Section        0  si24r1.o(i.si24r1_spi_init)
    i.si24r1_write_buf                       0x0800d0c0   Section        0  si24r1.o(i.si24r1_write_buf)
    i.si24r1_write_once                      0x0800d0f8   Section        0  si24r1.o(i.si24r1_write_once)
    i.st_clust                               0x0800d124   Section        0  ff.o(i.st_clust)
    st_clust                                 0x0800d125   Thumb Code    16  ff.o(i.st_clust)
    i.sum_arr                                0x0800d134   Section        0  fmt_jpeg.o(i.sum_arr)
    sum_arr                                  0x0800d135   Thumb Code    28  fmt_jpeg.o(i.sum_arr)
    i.sum_sfn                                0x0800d150   Section        0  ff.o(i.sum_sfn)
    sum_sfn                                  0x0800d151   Thumb Code    32  ff.o(i.sum_sfn)
    i.sync_fs                                0x0800d170   Section        0  ff.o(i.sync_fs)
    sync_fs                                  0x0800d171   Thumb Code   200  ff.o(i.sync_fs)
    i.sync_window                            0x0800d238   Section        0  ff.o(i.sync_window)
    sync_window                              0x0800d239   Thumb Code    82  ff.o(i.sync_window)
    i.validate                               0x0800d28a   Section        0  ff.o(i.validate)
    validate                                 0x0800d28b   Thumb Code    50  ff.o(i.validate)
    .constdata                               0x0800d2bc   Section     4366  oled.o(.constdata)
    .constdata                               0x0800e3ca   Section       10  si24r1.o(.constdata)
    .constdata                               0x0800e3d4   Section      186  ff.o(.constdata)
    ExCvt                                    0x0800e3d4   Data         128  ff.o(.constdata)
    LfnOfs                                   0x0800e454   Data          13  ff.o(.constdata)
    vst                                      0x0800e462   Data          22  ff.o(.constdata)
    cst                                      0x0800e478   Data          22  ff.o(.constdata)
    .constdata                               0x0800e48e   Section     2232  ccsbcs.o(.constdata)
    Tbl                                      0x0800e48e   Data         256  ccsbcs.o(.constdata)
    lower                                    0x0800e58e   Data         988  ccsbcs.o(.constdata)
    upper                                    0x0800e96a   Data         988  ccsbcs.o(.constdata)
    .constdata                               0x0800ed48   Section     1152  fmt_jpeg.o(.constdata)
    DCT                                      0x0800ed48   Data         512  fmt_jpeg.o(.constdata)
    DCT_T                                    0x0800ef48   Data         512  fmt_jpeg.o(.constdata)
    RLE_ZigZag                               0x0800f148   Data         128  fmt_jpeg.o(.constdata)
    .constdata                               0x0800f1c8   Section      198  usb_desc.o(.constdata)
    .data                                    0x20000000   Section       29  main.o(.data)
    j0                                       0x2000001c   Data           1  main.o(.data)
    .data                                    0x20000020   Section       20  system_stm32f10x.o(.data)
    .data                                    0x20000034   Section        8  irqhandler.o(.data)
    ms50                                     0x20000034   Data           2  irqhandler.o(.data)
    ms500                                    0x20000036   Data           2  irqhandler.o(.data)
    ms40                                     0x20000038   Data           2  irqhandler.o(.data)
    ms100                                    0x2000003a   Data           2  irqhandler.o(.data)
    .data                                    0x2000003c   Section       28  sdio_sdcard.o(.data)
    CardType                                 0x2000003c   Data           4  sdio_sdcard.o(.data)
    RCA                                      0x20000040   Data           4  sdio_sdcard.o(.data)
    .data                                    0x20000058   Section        1  si24r1.o(.data)
    .data                                    0x2000005c   Section        6  ff.o(.data)
    FatFs                                    0x2000005c   Data           4  ff.o(.data)
    Fsid                                     0x20000060   Data           2  ff.o(.data)
    .data                                    0x20000064   Section       32  extfunc.o(.data)
    .data                                    0x20000084   Section        8  fmt_jpeg.o(.data)
    mmask                                    0x20000084   Data           8  fmt_jpeg.o(.data)
    .data                                    0x2000008c   Section        3  usb_core.o(.data)
    .data                                    0x20000090   Section       20  usb_init.o(.data)
    .data                                    0x200000a4   Section        4  usb_int.o(.data)
    .data                                    0x200000a8   Section        1  hw_config.o(.data)
    .data                                    0x200000a9   Section       26  usb_desc.o(.data)
    .data                                    0x200000c4   Section       68  usb_istr.o(.data)
    .data                                    0x20000108   Section      156  usb_prop.o(.data)
    .data                                    0x200001a4   Section       12  usb_pwr.o(.data)
    .data                                    0x200001b0   Section        4  delay.o(.data)
    fac_us                                   0x200001b0   Data           1  delay.o(.data)
    fac_ms                                   0x200001b2   Data           2  delay.o(.data)
    .data                                    0x200001b4   Section        6  usart.o(.data)
    .data                                    0x200001bc   Section        4  mvars.o(.data)
    .data                                    0x200001c0   Section        4  mvars.o(.data)
    .bss                                     0x200001c4   Section      306  main.o(.bss)
    .bss                                     0x200002f8   Section       44  dma.o(.bss)
    .bss                                     0x20000324   Section       18  spi.o(.bss)
    .bss                                     0x20000336   Section    32768  oled.o(.bss)
    .bss                                     0x20008338   Section      156  sdio_sdcard.o(.bss)
    .bss                                     0x200083d4   Section     6060  extfunc.o(.bss)
    MCU_Y                                    0x200083d4   Data         256  extfunc.o(.bss)
    MCU_U                                    0x200084d4   Data         256  extfunc.o(.bss)
    MCU_V                                    0x200085d4   Data         256  extfunc.o(.bss)
    lfn                                      0x20009a2e   Data         255  extfunc.o(.bss)
    clmt                                     0x20009b30   Data          80  extfunc.o(.bss)
    .bss                                     0x20009b80   Section      768  fmt_jpeg.o(.bss)
    MCU_Y                                    0x20009b80   Data         256  fmt_jpeg.o(.bss)
    MCU_U                                    0x20009c80   Data         256  fmt_jpeg.o(.bss)
    MCU_V                                    0x20009d80   Data         256  fmt_jpeg.o(.bss)
    .bss                                     0x20009e80   Section       28  usb_init.o(.bss)
    .bss                                     0x20009e9c   Section       32  usb_pwr.o(.bss)
    .bss                                     0x20009ebc   Section      200  usart.o(.bss)
    HEAP                                     0x20009f88   Section     1536  startup_stm32f10x_hd.o(HEAP)
    STACK                                    0x2000a588   Section     4864  startup_stm32f10x_hd.o(STACK)

    Global Symbols

    Symbol Name                              Value     Ov Type        Size  Object(Section)

    BuildAttributes$$THM_ISAv4$P$D$K$B$S$PE$A:L22UL41UL21$X:L11$S22US41US21$IEEE1$IW$USESV6$~STKCKD$USESV7$~SHL$OTIME$ROPI$EBA8$MICROLIB$REQ8$PRES8$EABIv2 0x00000000   Number         0  anon$$obj.o ABSOLUTE
    __ARM_use_no_argv                        0x00000000   Number         0  main.o ABSOLUTE
    __use_no_errno                           0x00000000   Number         0  useno.o ABSOLUTE
    __use_no_exception_handling              0x00000000   Number         0  useno.o ABSOLUTE
    __use_no_fp                              0x00000000   Number         0  useno.o ABSOLUTE
    __use_no_heap                            0x00000000   Number         0  useno.o ABSOLUTE
    __use_no_heap_region                     0x00000000   Number         0  useno.o ABSOLUTE
    __use_no_semihosting                     0x00000000   Number         0  useno.o ABSOLUTE
    __use_no_semihosting_swi                 0x00000000   Number         0  useno.o ABSOLUTE
    __use_no_signal_handling                 0x00000000   Number         0  useno.o ABSOLUTE
    _printf_a                                0x00000000   Number         0  stubs.o ABSOLUTE
    _printf_c                                0x00000000   Number         0  stubs.o ABSOLUTE
    _printf_charcount                        0x00000000   Number         0  stubs.o ABSOLUTE
    _printf_d                                0x00000000   Number         0  stubs.o ABSOLUTE
    _printf_e                                0x00000000   Number         0  stubs.o ABSOLUTE
    _printf_f                                0x00000000   Number         0  stubs.o ABSOLUTE
    _printf_flags                            0x00000000   Number         0  stubs.o ABSOLUTE
    _printf_fp_dec                           0x00000000   Number         0  stubs.o ABSOLUTE
    _printf_fp_hex                           0x00000000   Number         0  stubs.o ABSOLUTE
    _printf_g                                0x00000000   Number         0  stubs.o ABSOLUTE
    _printf_i                                0x00000000   Number         0  stubs.o ABSOLUTE
    _printf_int_dec                          0x00000000   Number         0  stubs.o ABSOLUTE
    _printf_l                                0x00000000   Number         0  stubs.o ABSOLUTE
    _printf_lc                               0x00000000   Number         0  stubs.o ABSOLUTE
    _printf_ll                               0x00000000   Number         0  stubs.o ABSOLUTE
    _printf_lld                              0x00000000   Number         0  stubs.o ABSOLUTE
    _printf_lli                              0x00000000   Number         0  stubs.o ABSOLUTE
    _printf_llo                              0x00000000   Number         0  stubs.o ABSOLUTE
    _printf_llu                              0x00000000   Number         0  stubs.o ABSOLUTE
    _printf_llx                              0x00000000   Number         0  stubs.o ABSOLUTE
    _printf_longlong_dec                     0x00000000   Number         0  stubs.o ABSOLUTE
    _printf_longlong_hex                     0x00000000   Number         0  stubs.o ABSOLUTE
    _printf_longlong_oct                     0x00000000   Number         0  stubs.o ABSOLUTE
    _printf_ls                               0x00000000   Number         0  stubs.o ABSOLUTE
    _printf_mbtowc                           0x00000000   Number         0  stubs.o ABSOLUTE
    _printf_n                                0x00000000   Number         0  stubs.o ABSOLUTE
    _printf_o                                0x00000000   Number         0  stubs.o ABSOLUTE
    _printf_p                                0x00000000   Number         0  stubs.o ABSOLUTE
    _printf_percent                          0x00000000   Number         0  stubs.o ABSOLUTE
    _printf_pre_padding                      0x00000000   Number         0  stubs.o ABSOLUTE
    _printf_return_value                     0x00000000   Number         0  stubs.o ABSOLUTE
    _printf_s                                0x00000000   Number         0  stubs.o ABSOLUTE
    _printf_sizespec                         0x00000000   Number         0  stubs.o ABSOLUTE
    _printf_str                              0x00000000   Number         0  stubs.o ABSOLUTE
    _printf_truncate_signed                  0x00000000   Number         0  stubs.o ABSOLUTE
    _printf_truncate_unsigned                0x00000000   Number         0  stubs.o ABSOLUTE
    _printf_u                                0x00000000   Number         0  stubs.o ABSOLUTE
    _printf_wc                               0x00000000   Number         0  stubs.o ABSOLUTE
    _printf_wctomb                           0x00000000   Number         0  stubs.o ABSOLUTE
    _printf_widthprec                        0x00000000   Number         0  stubs.o ABSOLUTE
    _printf_x                                0x00000000   Number         0  stubs.o ABSOLUTE
    __cpp_initialize__aeabi_                  - Undefined Weak Reference
    __cxa_finalize                            - Undefined Weak Reference
    _clock_init                               - Undefined Weak Reference
    _microlib_exit                            - Undefined Weak Reference
    __Vectors_Size                           0x00000130   Number         0  startup_stm32f10x_hd.o ABSOLUTE
    __Vectors                                0x08000000   Data           4  startup_stm32f10x_hd.o(RESET)
    __Vectors_End                            0x08000130   Data           0  startup_stm32f10x_hd.o(RESET)
    __main                                   0x08000131   Thumb Code     0  entry.o(.ARM.Collect$$$$00000000)
    _main_stk                                0x08000131   Thumb Code     0  entry2.o(.ARM.Collect$$$$00000001)
    _main_scatterload                        0x08000135   Thumb Code     0  entry5.o(.ARM.Collect$$$$00000004)
    __main_after_scatterload                 0x08000139   Thumb Code     0  entry5.o(.ARM.Collect$$$$00000004)
    _main_clock                              0x08000139   Thumb Code     0  entry7b.o(.ARM.Collect$$$$00000008)
    _main_cpp_init                           0x08000139   Thumb Code     0  entry8b.o(.ARM.Collect$$$$0000000A)
    _main_init                               0x08000139   Thumb Code     0  entry9a.o(.ARM.Collect$$$$0000000B)
    __rt_final_cpp                           0x08000141   Thumb Code     0  entry10a.o(.ARM.Collect$$$$0000000D)
    __rt_final_exit                          0x08000141   Thumb Code     0  entry11a.o(.ARM.Collect$$$$0000000F)
    Reset_Handler                            0x08000145   Thumb Code     8  startup_stm32f10x_hd.o(.text)
    ADC1_2_IRQHandler                        0x0800015f   Thumb Code     0  startup_stm32f10x_hd.o(.text)
    ADC3_IRQHandler                          0x0800015f   Thumb Code     0  startup_stm32f10x_hd.o(.text)
    CAN1_RX1_IRQHandler                      0x0800015f   Thumb Code     0  startup_stm32f10x_hd.o(.text)
    CAN1_SCE_IRQHandler                      0x0800015f   Thumb Code     0  startup_stm32f10x_hd.o(.text)
    DMA1_Channel1_IRQHandler                 0x0800015f   Thumb Code     0  startup_stm32f10x_hd.o(.text)
    DMA1_Channel2_IRQHandler                 0x0800015f   Thumb Code     0  startup_stm32f10x_hd.o(.text)
    DMA1_Channel3_IRQHandler                 0x0800015f   Thumb Code     0  startup_stm32f10x_hd.o(.text)
    DMA1_Channel4_IRQHandler                 0x0800015f   Thumb Code     0  startup_stm32f10x_hd.o(.text)
    DMA1_Channel5_IRQHandler                 0x0800015f   Thumb Code     0  startup_stm32f10x_hd.o(.text)
    DMA1_Channel6_IRQHandler                 0x0800015f   Thumb Code     0  startup_stm32f10x_hd.o(.text)
    DMA1_Channel7_IRQHandler                 0x0800015f   Thumb Code     0  startup_stm32f10x_hd.o(.text)
    DMA2_Channel1_IRQHandler                 0x0800015f   Thumb Code     0  startup_stm32f10x_hd.o(.text)
    DMA2_Channel2_IRQHandler                 0x0800015f   Thumb Code     0  startup_stm32f10x_hd.o(.text)
    DMA2_Channel3_IRQHandler                 0x0800015f   Thumb Code     0  startup_stm32f10x_hd.o(.text)
    DMA2_Channel4_5_IRQHandler               0x0800015f   Thumb Code     0  startup_stm32f10x_hd.o(.text)
    EXTI0_IRQHandler                         0x0800015f   Thumb Code     0  startup_stm32f10x_hd.o(.text)
    EXTI1_IRQHandler                         0x0800015f   Thumb Code     0  startup_stm32f10x_hd.o(.text)
    EXTI2_IRQHandler                         0x0800015f   Thumb Code     0  startup_stm32f10x_hd.o(.text)
    FLASH_IRQHandler                         0x0800015f   Thumb Code     0  startup_stm32f10x_hd.o(.text)
    FSMC_IRQHandler                          0x0800015f   Thumb Code     0  startup_stm32f10x_hd.o(.text)
    I2C1_ER_IRQHandler                       0x0800015f   Thumb Code     0  startup_stm32f10x_hd.o(.text)
    I2C1_EV_IRQHandler                       0x0800015f   Thumb Code     0  startup_stm32f10x_hd.o(.text)
    I2C2_ER_IRQHandler                       0x0800015f   Thumb Code     0  startup_stm32f10x_hd.o(.text)
    I2C2_EV_IRQHandler                       0x0800015f   Thumb Code     0  startup_stm32f10x_hd.o(.text)
    PVD_IRQHandler                           0x0800015f   Thumb Code     0  startup_stm32f10x_hd.o(.text)
    RCC_IRQHandler                           0x0800015f   Thumb Code     0  startup_stm32f10x_hd.o(.text)
    RTCAlarm_IRQHandler                      0x0800015f   Thumb Code     0  startup_stm32f10x_hd.o(.text)
    RTC_IRQHandler                           0x0800015f   Thumb Code     0  startup_stm32f10x_hd.o(.text)
    SPI1_IRQHandler                          0x0800015f   Thumb Code     0  startup_stm32f10x_hd.o(.text)
    SPI2_IRQHandler                          0x0800015f   Thumb Code     0  startup_stm32f10x_hd.o(.text)
    SPI3_IRQHandler                          0x0800015f   Thumb Code     0  startup_stm32f10x_hd.o(.text)
    TAMPER_IRQHandler                        0x0800015f   Thumb Code     0  startup_stm32f10x_hd.o(.text)
    TIM1_BRK_IRQHandler                      0x0800015f   Thumb Code     0  startup_stm32f10x_hd.o(.text)
    TIM1_CC_IRQHandler                       0x0800015f   Thumb Code     0  startup_stm32f10x_hd.o(.text)
    TIM1_TRG_COM_IRQHandler                  0x0800015f   Thumb Code     0  startup_stm32f10x_hd.o(.text)
    TIM1_UP_IRQHandler                       0x0800015f   Thumb Code     0  startup_stm32f10x_hd.o(.text)
    TIM2_IRQHandler                          0x0800015f   Thumb Code     0  startup_stm32f10x_hd.o(.text)
    TIM4_IRQHandler                          0x0800015f   Thumb Code     0  startup_stm32f10x_hd.o(.text)
    TIM5_IRQHandler                          0x0800015f   Thumb Code     0  startup_stm32f10x_hd.o(.text)
    TIM6_IRQHandler                          0x0800015f   Thumb Code     0  startup_stm32f10x_hd.o(.text)
    TIM7_IRQHandler                          0x0800015f   Thumb Code     0  startup_stm32f10x_hd.o(.text)
    TIM8_BRK_IRQHandler                      0x0800015f   Thumb Code     0  startup_stm32f10x_hd.o(.text)
    TIM8_CC_IRQHandler                       0x0800015f   Thumb Code     0  startup_stm32f10x_hd.o(.text)
    TIM8_TRG_COM_IRQHandler                  0x0800015f   Thumb Code     0  startup_stm32f10x_hd.o(.text)
    TIM8_UP_IRQHandler                       0x0800015f   Thumb Code     0  startup_stm32f10x_hd.o(.text)
    UART4_IRQHandler                         0x0800015f   Thumb Code     0  startup_stm32f10x_hd.o(.text)
    UART5_IRQHandler                         0x0800015f   Thumb Code     0  startup_stm32f10x_hd.o(.text)
    USART2_IRQHandler                        0x0800015f   Thumb Code     0  startup_stm32f10x_hd.o(.text)
    USART3_IRQHandler                        0x0800015f   Thumb Code     0  startup_stm32f10x_hd.o(.text)
    USB_HP_CAN1_TX_IRQHandler                0x0800015f   Thumb Code     0  startup_stm32f10x_hd.o(.text)
    WWDG_IRQHandler                          0x0800015f   Thumb Code     0  startup_stm32f10x_hd.o(.text)
    __aeabi_uldivmod                         0x08000169   Thumb Code    98  uldiv.o(.text)
    __aeabi_memcpy                           0x080001cb   Thumb Code    36  memcpya.o(.text)
    __aeabi_memcpy4                          0x080001cb   Thumb Code     0  memcpya.o(.text)
    __aeabi_memcpy8                          0x080001cb   Thumb Code     0  memcpya.o(.text)
    __aeabi_memset                           0x080001ef   Thumb Code    14  memseta.o(.text)
    __aeabi_memset4                          0x080001ef   Thumb Code     0  memseta.o(.text)
    __aeabi_memset8                          0x080001ef   Thumb Code     0  memseta.o(.text)
    __aeabi_memclr                           0x080001fd   Thumb Code     4  memseta.o(.text)
    __aeabi_memclr4                          0x080001fd   Thumb Code     0  memseta.o(.text)
    __aeabi_memclr8                          0x080001fd   Thumb Code     0  memseta.o(.text)
    _memset$wrapper                          0x08000201   Thumb Code    18  memseta.o(.text)
    strstr                                   0x08000213   Thumb Code    36  strstr.o(.text)
    strncpy                                  0x08000237   Thumb Code    24  strncpy.o(.text)
    strlen                                   0x0800024f   Thumb Code    14  strlen.o(.text)
    __aeabi_fmul                             0x0800025d   Thumb Code   100  fmul.o(.text)
    __aeabi_fdiv                             0x080002c1   Thumb Code   124  fdiv.o(.text)
    __aeabi_dadd                             0x0800033d   Thumb Code   322  dadd.o(.text)
    __aeabi_dsub                             0x0800047f   Thumb Code     6  dadd.o(.text)
    __aeabi_drsub                            0x08000485   Thumb Code     6  dadd.o(.text)
    __aeabi_dmul                             0x0800048b   Thumb Code   228  dmul.o(.text)
    __aeabi_i2f                              0x0800056f   Thumb Code    18  fflti.o(.text)
    __aeabi_ui2f                             0x08000581   Thumb Code    10  ffltui.o(.text)
    __aeabi_i2d                              0x0800058b   Thumb Code    34  dflti.o(.text)
    __aeabi_f2uiz                            0x080005ad   Thumb Code    40  ffixui.o(.text)
    __aeabi_d2iz                             0x080005d5   Thumb Code    62  dfixi.o(.text)
    __aeabi_d2uiz                            0x08000613   Thumb Code    50  dfixui.o(.text)
    __aeabi_f2d                              0x08000645   Thumb Code    38  f2d.o(.text)
    __aeabi_cdcmpeq                          0x0800066d   Thumb Code     0  cdcmple.o(.text)
    __aeabi_cdcmple                          0x0800066d   Thumb Code    48  cdcmple.o(.text)
    __aeabi_cdrcmple                         0x0800069d   Thumb Code    48  cdrcmple.o(.text)
    __aeabi_d2f                              0x080006cd   Thumb Code    56  d2f.o(.text)
    __aeabi_cfcmpeq                          0x08000705   Thumb Code     0  cfcmple.o(.text)
    __aeabi_cfcmple                          0x08000705   Thumb Code    20  cfcmple.o(.text)
    __aeabi_llsl                             0x08000719   Thumb Code    30  llshl.o(.text)
    _ll_shift_l                              0x08000719   Thumb Code     0  llshl.o(.text)
    __aeabi_llsr                             0x08000737   Thumb Code    32  llushr.o(.text)
    _ll_ushift_r                             0x08000737   Thumb Code     0  llushr.o(.text)
    __aeabi_lasr                             0x08000757   Thumb Code    36  llsshr.o(.text)
    _ll_sshift_r                             0x08000757   Thumb Code     0  llsshr.o(.text)
    __I$use$fp                               0x0800077b   Thumb Code     0  iusefp.o(.text)
    _float_round                             0x0800077b   Thumb Code    18  fepilogue.o(.text)
    _float_epilogue                          0x0800078d   Thumb Code    92  fepilogue.o(.text)
    _double_round                            0x080007e9   Thumb Code    30  depilogue.o(.text)
    _double_epilogue                         0x08000807   Thumb Code   156  depilogue.o(.text)
    __scatterload                            0x080008a5   Thumb Code    28  init.o(.text)
    __scatterload_rt2                        0x080008a5   Thumb Code     0  init.o(.text)
    __decompress                             0x080008c9   Thumb Code     0  __dczerorl2.o(.text)
    __decompress1                            0x080008c9   Thumb Code    86  __dczerorl2.o(.text)
    ADC_Cmd                                  0x0800091f   Thumb Code    22  stm32f10x_adc.o(i.ADC_Cmd)
    ADC_DMACmd                               0x08000935   Thumb Code    22  stm32f10x_adc.o(i.ADC_DMACmd)
    ADC_DeInit                               0x0800094d   Thumb Code    78  stm32f10x_adc.o(i.ADC_DeInit)
    ADC_GetCalibrationStatus                 0x080009a9   Thumb Code    20  stm32f10x_adc.o(i.ADC_GetCalibrationStatus)
    ADC_GetResetCalibrationStatus            0x080009bd   Thumb Code    20  stm32f10x_adc.o(i.ADC_GetResetCalibrationStatus)
    ADC_Init                                 0x080009d1   Thumb Code    70  stm32f10x_adc.o(i.ADC_Init)
    ADC_RegularChannelConfig                 0x08000a21   Thumb Code   184  stm32f10x_adc.o(i.ADC_RegularChannelConfig)
    ADC_ResetCalibration                     0x08000ad9   Thumb Code    10  stm32f10x_adc.o(i.ADC_ResetCalibration)
    ADC_SoftwareStartConvCmd                 0x08000ae3   Thumb Code    22  stm32f10x_adc.o(i.ADC_SoftwareStartConvCmd)
    ADC_StartCalibration                     0x08000af9   Thumb Code    10  stm32f10x_adc.o(i.ADC_StartCalibration)
    Build_Huffman_Table_SD                   0x08000b05   Thumb Code   392  fmt_jpeg.o(i.Build_Huffman_Table_SD)
    BusFault_Handler                         0x08000d29   Thumb Code     4  stm32f10x_it.o(i.BusFault_Handler)
    ByteSwap                                 0x08000d2d   Thumb Code    12  usb_regs.o(i.ByteSwap)
    CTR_LP                                   0x08000d39   Thumb Code   616  usb_int.o(i.CTR_LP)
    ClearDTOG_RX                             0x08000fc1   Thumb Code    48  usb_regs.o(i.ClearDTOG_RX)
    ClearDTOG_TX                             0x08000ff5   Thumb Code    48  usb_regs.o(i.ClearDTOG_TX)
    Clear_Status_Out                         0x08001029   Thumb Code    34  usb_regs.o(i.Clear_Status_Out)
    DMA_ClearFlag                            0x0800131d   Thumb Code    18  stm32f10x_dma.o(i.DMA_ClearFlag)
    DMA_Cmd                                  0x08001339   Thumb Code    24  stm32f10x_dma.o(i.DMA_Cmd)
    DMA_DeInit                               0x08001351   Thumb Code   324  stm32f10x_dma.o(i.DMA_DeInit)
    DMA_GetFlagStatus                        0x0800149d   Thumb Code    36  stm32f10x_dma.o(i.DMA_GetFlagStatus)
    DMA_Init                                 0x080014c9   Thumb Code    60  stm32f10x_dma.o(i.DMA_Init)
    DebugMon_Handler                         0x08001919   Thumb Code     2  stm32f10x_it.o(i.DebugMon_Handler)
    Dec_JPEG_to_YuvRgb                       0x0800191d   Thumb Code  6164  fmt_jpeg.o(i.Dec_JPEG_to_YuvRgb)
    EP1_IN_Callback                          0x08003139   Thumb Code     8  usb_endp.o(i.EP1_IN_Callback)
    EXTI15_10_IRQHandler                     0x08003145   Thumb Code   102  irqhandler.o(i.EXTI15_10_IRQHandler)
    EXTI3_IRQHandler                         0x080031b9   Thumb Code    46  irqhandler.o(i.EXTI3_IRQHandler)
    EXTI4_IRQHandler                         0x080031f1   Thumb Code    24  si24r1.o(i.EXTI4_IRQHandler)
    EXTI9_5_IRQHandler                       0x0800320d   Thumb Code    52  irqhandler.o(i.EXTI9_5_IRQHandler)
    EXTI_ClearITPendingBit                   0x08003249   Thumb Code     6  stm32f10x_exti.o(i.EXTI_ClearITPendingBit)
    EXTI_GetITStatus                         0x08003255   Thumb Code    34  stm32f10x_exti.o(i.EXTI_GetITStatus)
    EXTI_Init                                0x0800327d   Thumb Code   142  stm32f10x_exti.o(i.EXTI_Init)
    Enter_LowPowerMode                       0x08003311   Thumb Code     8  hw_config.o(i.Enter_LowPowerMode)
    GPIO_EXTILineConfig                      0x080034b1   Thumb Code    60  stm32f10x_gpio.o(i.GPIO_EXTILineConfig)
    GPIO_Init                                0x080034f1   Thumb Code   278  stm32f10x_gpio.o(i.GPIO_Init)
    GPIO_ReadInputDataBit                    0x08003607   Thumb Code    18  stm32f10x_gpio.o(i.GPIO_ReadInputDataBit)
    GPIO_ResetBits                           0x08003619   Thumb Code     4  stm32f10x_gpio.o(i.GPIO_ResetBits)
    GPIO_SetBits                             0x0800361d   Thumb Code     4  stm32f10x_gpio.o(i.GPIO_SetBits)
    GetEPRxAddr                              0x08003621   Thumb Code    24  usb_regs.o(i.GetEPRxAddr)
    GetEPTxAddr                              0x08003641   Thumb Code    22  usb_regs.o(i.GetEPTxAddr)
    Get_SerialNum                            0x08003661   Thumb Code    42  hw_config.o(i.Get_SerialNum)
    HardFault_Handler                        0x08003695   Thumb Code     4  stm32f10x_it.o(i.HardFault_Handler)
    In0_Process                              0x08003699   Thumb Code    98  usb_core.o(i.In0_Process)
    Inverse_DCT                              0x08003749   Thumb Code   274  fmt_jpeg.o(i.Inverse_DCT)
    Joystick_Data_Setup                      0x08003865   Thumb Code   108  usb_prop.o(i.Joystick_Data_Setup)
    Joystick_GetConfigDescriptor             0x080038e1   Thumb Code    14  usb_prop.o(i.Joystick_GetConfigDescriptor)
    Joystick_GetDeviceDescriptor             0x080038f5   Thumb Code    14  usb_prop.o(i.Joystick_GetDeviceDescriptor)
    Joystick_GetHIDDescriptor                0x08003909   Thumb Code    14  usb_prop.o(i.Joystick_GetHIDDescriptor)
    Joystick_GetProtocolValue                0x0800391d   Thumb Code    20  usb_prop.o(i.Joystick_GetProtocolValue)
    Joystick_GetReportDescriptor             0x08003939   Thumb Code    14  usb_prop.o(i.Joystick_GetReportDescriptor)
    Joystick_GetStringDescriptor             0x0800394d   Thumb Code    32  usb_prop.o(i.Joystick_GetStringDescriptor)
    Joystick_Get_Interface_Setting           0x08003975   Thumb Code    22  usb_prop.o(i.Joystick_Get_Interface_Setting)
    Joystick_NoData_Setup                    0x0800398d   Thumb Code    32  usb_prop.o(i.Joystick_NoData_Setup)
    Joystick_Reset                           0x080039b1   Thumb Code   148  usb_prop.o(i.Joystick_Reset)
    Joystick_Send                            0x08003a55   Thumb Code    48  hw_config.o(i.Joystick_Send)
    Joystick_SetConfiguration                0x08003a85   Thumb Code    14  usb_prop.o(i.Joystick_SetConfiguration)
    Joystick_SetDeviceAddress                0x08003a9d   Thumb Code     8  usb_prop.o(i.Joystick_SetDeviceAddress)
    Joystick_SetProtocol                     0x08003aa9   Thumb Code    14  usb_prop.o(i.Joystick_SetProtocol)
    Joystick_Status_In                       0x08003ac1   Thumb Code     2  usb_prop.o(i.Joystick_Status_In)
    Joystick_Status_Out                      0x08003ac3   Thumb Code     2  usb_prop.o(i.Joystick_Status_Out)
    Joystick_init                            0x08003ac5   Thumb Code    30  usb_prop.o(i.Joystick_init)
    Leave_LowPowerMode                       0x08003aed   Thumb Code    22  hw_config.o(i.Leave_LowPowerMode)
    Lithium_Battery_percent                  0x08003b0d   Thumb Code   508  adc.o(i.Lithium_Battery_percent)
    MemManage_Handler                        0x08003d5d   Thumb Code     4  stm32f10x_it.o(i.MemManage_Handler)
    NMI_Handler                              0x08003d61   Thumb Code     2  stm32f10x_it.o(i.NMI_Handler)
    NOP_Process                              0x08003d63   Thumb Code     2  usb_core.o(i.NOP_Process)
    NVIC_Init                                0x08003d65   Thumb Code   100  misc.o(i.NVIC_Init)
    NVIC_PriorityGroupConfig                 0x08003dd5   Thumb Code    10  misc.o(i.NVIC_PriorityGroupConfig)
    Out0_Process                             0x08003f21   Thumb Code    70  usb_core.o(i.Out0_Process)
    PMAToUserBufferCopy                      0x08003f71   Thumb Code    34  usb_mem.o(i.PMAToUserBufferCopy)
    PendSV_Handler                           0x08003f99   Thumb Code     2  stm32f10x_it.o(i.PendSV_Handler)
    Post0_Process                            0x08003f9d   Thumb Code    54  usb_core.o(i.Post0_Process)
    PowerOn                                  0x08003fe5   Thumb Code    54  usb_pwr.o(i.PowerOn)
    RCC_ADCCLKConfig                         0x08004025   Thumb Code    18  stm32f10x_rcc.o(i.RCC_ADCCLKConfig)
    RCC_AHBPeriphClockCmd                    0x0800403d   Thumb Code    26  stm32f10x_rcc.o(i.RCC_AHBPeriphClockCmd)
    RCC_APB1PeriphClockCmd                   0x0800405d   Thumb Code    26  stm32f10x_rcc.o(i.RCC_APB1PeriphClockCmd)
    RCC_APB2PeriphClockCmd                   0x0800407d   Thumb Code    26  stm32f10x_rcc.o(i.RCC_APB2PeriphClockCmd)
    RCC_APB2PeriphResetCmd                   0x0800409d   Thumb Code    26  stm32f10x_rcc.o(i.RCC_APB2PeriphResetCmd)
    RCC_USBCLKConfig                         0x080040bd   Thumb Code     6  stm32f10x_rcc.o(i.RCC_USBCLKConfig)
    Resume                                   0x080040c9   Thumb Code   194  usb_pwr.o(i.Resume)
    Resume_Init                              0x08004199   Thumb Code    30  usb_pwr.o(i.Resume_Init)
    SDIO_ClearFlag                           0x080042c9   Thumb Code     6  stm32f10x_sdio.o(i.SDIO_ClearFlag)
    SDIO_ClearITPendingBit                   0x080042d5   Thumb Code     6  stm32f10x_sdio.o(i.SDIO_ClearITPendingBit)
    SDIO_ClockCmd                            0x080042e1   Thumb Code     6  stm32f10x_sdio.o(i.SDIO_ClockCmd)
    SDIO_DMACmd                              0x080042ed   Thumb Code     6  stm32f10x_sdio.o(i.SDIO_DMACmd)
    SDIO_DataConfig                          0x080042f9   Thumb Code    42  stm32f10x_sdio.o(i.SDIO_DataConfig)
    SDIO_DeInit                              0x08004329   Thumb Code    28  stm32f10x_sdio.o(i.SDIO_DeInit)
    SDIO_GetCommandResponse                  0x0800434d   Thumb Code     8  stm32f10x_sdio.o(i.SDIO_GetCommandResponse)
    SDIO_GetFlagStatus                       0x08004359   Thumb Code    20  stm32f10x_sdio.o(i.SDIO_GetFlagStatus)
    SDIO_GetPowerState                       0x08004371   Thumb Code    10  stm32f10x_sdio.o(i.SDIO_GetPowerState)
    SDIO_GetResponse                         0x08004381   Thumb Code    20  stm32f10x_sdio.o(i.SDIO_GetResponse)
    SDIO_IRQHandler                          0x08004399   Thumb Code     8  irqhandler.o(i.SDIO_IRQHandler)
    SDIO_ITConfig                            0x080043a1   Thumb Code    26  stm32f10x_sdio.o(i.SDIO_ITConfig)
    SDIO_Init                                0x080043c1   Thumb Code    42  stm32f10x_sdio.o(i.SDIO_Init)
    SDIO_ReadData                            0x08004411   Thumb Code     6  stm32f10x_sdio.o(i.SDIO_ReadData)
    SDIO_SendCommand                         0x08004485   Thumb Code    38  stm32f10x_sdio.o(i.SDIO_SendCommand)
    SDIO_SetPowerState                       0x080044b1   Thumb Code    22  stm32f10x_sdio.o(i.SDIO_SetPowerState)
    SD_EnableWideBusOperation                0x08004595   Thumb Code   140  sdio_sdcard.o(i.SD_EnableWideBusOperation)
    SD_GetCardInfo                           0x08004629   Thumb Code   702  sdio_sdcard.o(i.SD_GetCardInfo)
    SD_GetState                              0x080048f1   Thumb Code    26  sdio_sdcard.o(i.SD_GetState)
    SD_GetStatus                             0x0800490b   Thumb Code    30  sdio_sdcard.o(i.SD_GetStatus)
    SD_Init                                  0x08004929   Thumb Code   158  sdio_sdcard.o(i.SD_Init)
    SD_InitializeCards                       0x080049d9   Thumb Code   282  sdio_sdcard.o(i.SD_InitializeCards)
    SD_PowerON                               0x08004b01   Thumb Code   382  sdio_sdcard.o(i.SD_PowerON)
    SD_ProcessIRQSrc                         0x08004c91   Thumb Code    70  sdio_sdcard.o(i.SD_ProcessIRQSrc)
    SD_ReadMultiBlocks                       0x08004ce9   Thumb Code   204  sdio_sdcard.o(i.SD_ReadMultiBlocks)
    SD_SelectDeselect                        0x08004dd1   Thumb Code    48  sdio_sdcard.o(i.SD_SelectDeselect)
    SD_SendStatus                            0x08004e05   Thumb Code    46  sdio_sdcard.o(i.SD_SendStatus)
    SD_WaitReadOperation                     0x08004e3d   Thumb Code    52  sdio_sdcard.o(i.SD_WaitReadOperation)
    SD_WaitWriteOperation                    0x08004e7d   Thumb Code    52  sdio_sdcard.o(i.SD_WaitWriteOperation)
    SD_WriteBlock                            0x08004ebd   Thumb Code   192  sdio_sdcard.o(i.SD_WriteBlock)
    SD_WriteMultiBlocks                      0x08004f99   Thumb Code   294  sdio_sdcard.o(i.SD_WriteMultiBlocks)
    SPI1_Init                                0x080050e1   Thumb Code   106  spi.o(i.SPI1_Init)
    SPI1_ReadWriteByte                       0x08005159   Thumb Code    78  spi.o(i.SPI1_ReadWriteByte)
    SPI2_Init                                0x080051ad   Thumb Code   110  spi.o(i.SPI2_Init)
    SPI2_ReadWriteByte                       0x08005229   Thumb Code    78  spi.o(i.SPI2_ReadWriteByte)
    SPI_Cmd                                  0x0800527d   Thumb Code    24  stm32f10x_spi.o(i.SPI_Cmd)
    SPI_I2S_GetFlagStatus                    0x08005295   Thumb Code    18  stm32f10x_spi.o(i.SPI_I2S_GetFlagStatus)
    SPI_I2S_ReceiveData                      0x080052a7   Thumb Code     6  stm32f10x_spi.o(i.SPI_I2S_ReceiveData)
    SPI_I2S_SendData                         0x080052ad   Thumb Code     4  stm32f10x_spi.o(i.SPI_I2S_SendData)
    SPI_Init                                 0x080052b1   Thumb Code    60  stm32f10x_spi.o(i.SPI_Init)
    SVC_Handler                              0x080052ed   Thumb Code     2  stm32f10x_it.o(i.SVC_Handler)
    SetBTABLE                                0x080052f1   Thumb Code    12  usb_regs.o(i.SetBTABLE)
    SetDeviceAddress                         0x08005301   Thumb Code    68  usb_core.o(i.SetDeviceAddress)
    SetEPRxAddr                              0x08005351   Thumb Code    26  usb_regs.o(i.SetEPRxAddr)
    SetEPRxCount                             0x08005375   Thumb Code    68  usb_regs.o(i.SetEPRxCount)
    SetEPRxStatus                            0x080053c1   Thumb Code    60  usb_regs.o(i.SetEPRxStatus)
    SetEPRxValid                             0x08005401   Thumb Code    48  usb_regs.o(i.SetEPRxValid)
    SetEPTxAddr                              0x08005435   Thumb Code    24  usb_regs.o(i.SetEPTxAddr)
    SetEPTxCount                             0x08005455   Thumb Code    20  usb_regs.o(i.SetEPTxCount)
    SetEPTxStatus                            0x08005471   Thumb Code    60  usb_regs.o(i.SetEPTxStatus)
    SetEPTxValid                             0x080054b1   Thumb Code    48  usb_regs.o(i.SetEPTxValid)
    SetEPType                                0x080054e5   Thumb Code    32  usb_regs.o(i.SetEPType)
    Set_USBClock                             0x080055f1   Thumb Code    18  hw_config.o(i.Set_USBClock)
    Setup0_Process                           0x08005605   Thumb Code   170  usb_core.o(i.Setup0_Process)
    Standard_ClearFeature                    0x080056bd   Thumb Code   342  usb_core.o(i.Standard_ClearFeature)
    Standard_GetConfiguration                0x08005829   Thumb Code    34  usb_core.o(i.Standard_GetConfiguration)
    Standard_GetDescriptorData               0x08005855   Thumb Code    32  usb_core.o(i.Standard_GetDescriptorData)
    Standard_GetInterface                    0x08005879   Thumb Code    34  usb_core.o(i.Standard_GetInterface)
    Standard_GetStatus                       0x080058a5   Thumb Code   238  usb_core.o(i.Standard_GetStatus)
    Standard_SetConfiguration                0x080059a5   Thumb Code    60  usb_core.o(i.Standard_SetConfiguration)
    Standard_SetDeviceFeature                0x080059ed   Thumb Code    30  usb_core.o(i.Standard_SetDeviceFeature)
    Standard_SetEndPointFeature              0x08005a15   Thumb Code   192  usb_core.o(i.Standard_SetEndPointFeature)
    Standard_SetInterface                    0x08005ae5   Thumb Code    96  usb_core.o(i.Standard_SetInterface)
    Suspend                                  0x08005b51   Thumb Code   142  usb_pwr.o(i.Suspend)
    SysTick_CLKSourceConfig                  0x08005bed   Thumb Code    40  misc.o(i.SysTick_CLKSourceConfig)
    SysTick_Handler                          0x08005c15   Thumb Code     2  stm32f10x_it.o(i.SysTick_Handler)
    SystemInit                               0x08005c19   Thumb Code    78  system_stm32f10x.o(i.SystemInit)
    TIM3_Config_Init                         0x08005c79   Thumb Code    90  timer.o(i.TIM3_Config_Init)
    TIM3_IRQHandler                          0x08005cd9   Thumb Code   146  irqhandler.o(i.TIM3_IRQHandler)
    TIM_ClearITPendingBit                    0x08005d91   Thumb Code     6  stm32f10x_tim.o(i.TIM_ClearITPendingBit)
    TIM_Cmd                                  0x08005d97   Thumb Code    24  stm32f10x_tim.o(i.TIM_Cmd)
    TIM_GetITStatus                          0x08005daf   Thumb Code    34  stm32f10x_tim.o(i.TIM_GetITStatus)
    TIM_ITConfig                             0x08005dd1   Thumb Code    18  stm32f10x_tim.o(i.TIM_ITConfig)
    TIM_TimeBaseInit                         0x08005de5   Thumb Code   122  stm32f10x_tim.o(i.TIM_TimeBaseInit)
    USART1_IRQHandler                        0x08005e89   Thumb Code   122  usart.o(i.USART1_IRQHandler)
    USART_GetITStatus                        0x08005f11   Thumb Code    84  stm32f10x_usart.o(i.USART_GetITStatus)
    USART_ReceiveData                        0x08005f65   Thumb Code    10  stm32f10x_usart.o(i.USART_ReceiveData)
    USBWakeUp_IRQHandler                     0x08005f6f   Thumb Code    12  irqhandler.o(i.USBWakeUp_IRQHandler)
    USB_Cable_Config                         0x08005f7b   Thumb Code     2  hw_config.o(i.USB_Cable_Config)
    USB_Init                                 0x08005f7d   Thumb Code    36  usb_init.o(i.USB_Init)
    USB_Interrupts_Config                    0x08005fb9   Thumb Code    84  hw_config.o(i.USB_Interrupts_Config)
    USB_Istr                                 0x0800600d   Thumb Code   422  usb_istr.o(i.USB_Istr)
    USB_LP_CAN1_RX0_IRQHandler               0x080061d9   Thumb Code     8  irqhandler.o(i.USB_LP_CAN1_RX0_IRQHandler)
    USB_Port_Set                             0x080061e1   Thumb Code    74  hw_config.o(i.USB_Port_Set)
    USB_SIL_Init                             0x08006239   Thumb Code    28  usb_sil.o(i.USB_SIL_Init)
    USB_SIL_Write                            0x0800625d   Thumb Code    46  usb_sil.o(i.USB_SIL_Write)
    UsageFault_Handler                       0x0800628b   Thumb Code     4  stm32f10x_it.o(i.UsageFault_Handler)
    UserToPMABufferCopy                      0x08006291   Thumb Code    52  usb_mem.o(i.UserToPMABufferCopy)
    __0sprintf$2                             0x080062c9   Thumb Code    34  printf2.o(i.__0sprintf$2)
    __1sprintf$2                             0x080062c9   Thumb Code     0  printf2.o(i.__0sprintf$2)
    __2sprintf                               0x080062c9   Thumb Code     0  printf2.o(i.__0sprintf$2)
    __scatterload_copy                       0x080062f1   Thumb Code    14  handlers.o(i.__scatterload_copy)
    __scatterload_null                       0x080062ff   Thumb Code     2  handlers.o(i.__scatterload_null)
    __scatterload_zeroinit                   0x08006301   Thumb Code    14  handlers.o(i.__scatterload_zeroinit)
    adc1_init                                0x080063f1   Thumb Code   272  adc.o(i.adc1_init)
    adc_dma_start                            0x0800650d   Thumb Code    20  adc.o(i.adc_dma_start)
    clust2sect                               0x080065ff   Thumb Code    26  ff.o(i.clust2sect)
    delay_init                               0x080069c1   Thumb Code    50  delay.o(i.delay_init)
    delay_ms                                 0x08006a05   Thumb Code    72  delay.o(i.delay_ms)
    disk_initialize                          0x08006f33   Thumb Code    28  diskio.o(i.disk_initialize)
    disk_ioctl                               0x08006f51   Thumb Code    84  diskio.o(i.disk_ioctl)
    disk_read                                0x08006fa9   Thumb Code   178  diskio.o(i.disk_read)
    disk_status                              0x08007061   Thumb Code    14  diskio.o(i.disk_status)
    disk_write                               0x08007071   Thumb Code   208  diskio.o(i.disk_write)
    dma_config                               0x08007145   Thumb Code    80  dma.o(i.dma_config)
    ef_FileList_iteration                    0x08007199   Thumb Code  1188  extfunc.o(i.ef_FileList_iteration)
    ef_SD_GetGbkMatrix                       0x0800763d   Thumb Code   318  extfunc.o(i.ef_SD_GetGbkMatrix)
    ef_check_extension                       0x080077c9   Thumb Code   232  extfunc.o(i.ef_check_extension)
    ef_checkfile                             0x08007919   Thumb Code    26  extfunc.o(i.ef_checkfile)
    ef_display_SDcapcity                     0x08007939   Thumb Code   214  extfunc.o(i.ef_display_SDcapcity)
    ef_display_filelist                      0x08007a81   Thumb Code   358  extfunc.o(i.ef_display_filelist)
    ef_getcapacity                           0x08007c01   Thumb Code    82  extfunc.o(i.ef_getcapacity)
    ef_multimedia_pic_bin                    0x08007c59   Thumb Code  1492  extfunc.o(i.ef_multimedia_pic_bin)
    ef_multimedia_pic_bmp                    0x08008259   Thumb Code  1712  picturelib.o(i.ef_multimedia_pic_bmp)
    ef_multimedia_pic_jpeg                   0x08008961   Thumb Code   240  picturelib.o(i.ef_multimedia_pic_jpeg)
    ef_multimedia_txt                        0x08008a95   Thumb Code   194  extfunc.o(i.ef_multimedia_txt)
    ef_scanfiles                             0x08008ba1   Thumb Code   146  extfunc.o(i.ef_scanfiles)
    exti_init                                0x08008c41   Thumb Code   162  exti.o(i.exti_init)
    f_close                                  0x08008ce3   Thumb Code    32  ff.o(i.f_close)
    f_closedir                               0x08008d03   Thumb Code    22  ff.o(i.f_closedir)
    f_getfree                                0x08008d19   Thumb Code   258  ff.o(i.f_getfree)
    f_lseek                                  0x08008e1b   Thumb Code   684  ff.o(i.f_lseek)
    f_mount                                  0x080090c9   Thumb Code    86  ff.o(i.f_mount)
    f_open                                   0x08009125   Thumb Code   380  ff.o(i.f_open)
    f_opendir                                0x080092a1   Thumb Code   114  ff.o(i.f_opendir)
    f_read                                   0x08009313   Thumb Code   432  ff.o(i.f_read)
    f_readdir                                0x080094c3   Thumb Code    96  ff.o(i.f_readdir)
    f_stat                                   0x08009523   Thumb Code    64  ff.o(i.f_stat)
    f_sync                                   0x08009563   Thumb Code   176  ff.o(i.f_sync)
    f_write                                  0x08009613   Thumb Code   490  ff.o(i.f_write)
    ff_convert                               0x080097fd   Thumb Code    70  ccsbcs.o(i.ff_convert)
    ff_wtoupper                              0x08009849   Thumb Code    84  ccsbcs.o(i.ff_wtoupper)
    free                                     0x08009d49   Thumb Code    76  malloc.o(i.free)
    get_fat                                  0x08009e4d   Thumb Code   242  ff.o(i.get_fat)
    get_fattime                              0x08009f41   Thumb Code     4  diskio.o(i.get_fattime)
    key_init                                 0x0800a095   Thumb Code    98  key.o(i.key_init)
    led_init                                 0x0800a121   Thumb Code    90  led.o(i.led_init)
    main                                     0x0800a181   Thumb Code  4904  main.o(i.main)
    malloc                                   0x0800b4bd   Thumb Code    92  malloc.o(i.malloc)
    mypow                                    0x0800b5b1   Thumb Code    22  oled.o(i.mypow)
    oled_buffer_clear                        0x0800b5c9   Thumb Code    48  oled.o(i.oled_buffer_clear)
    oled_clear                               0x0800b5fd   Thumb Code    20  oled.o(i.oled_clear)
    oled_draw_line                           0x0800b611   Thumb Code   184  oled_mathpaint.o(i.oled_draw_line)
    oled_draw_point                          0x0800b6c9   Thumb Code    24  oled.o(i.oled_draw_point)
    oled_draw_rectangle                      0x0800b6e5   Thumb Code    74  oled_mathpaint.o(i.oled_draw_rectangle)
    oled_refresh                             0x0800b731   Thumb Code    70  oled.o(i.oled_refresh)
    oled_show_Bin_Array                      0x0800b77d   Thumb Code   304  oled.o(i.oled_show_Bin_Array)
    oled_show_GBK                            0x0800b8b1   Thumb Code   214  oled.o(i.oled_show_GBK)
    oled_show_char                           0x0800b989   Thumb Code   234  oled.o(i.oled_show_char)
    oled_show_float                          0x0800ba81   Thumb Code   494  oled.o(i.oled_show_float)
    oled_show_num_every0                     0x0800bc6f   Thumb Code   128  oled.o(i.oled_show_num_every0)
    oled_show_num_hide0                      0x0800bcef   Thumb Code   372  oled.o(i.oled_show_num_hide0)
    oled_show_string                         0x0800be63   Thumb Code   446  oled.o(i.oled_show_string)
    oled_spi_init                            0x0800c021   Thumb Code    84  oled.o(i.oled_spi_init)
    oled_ssd1351_init                        0x0800c07d   Thumb Code   914  oled.o(i.oled_ssd1351_init)
    oled_write_Byte                          0x0800c419   Thumb Code    38  oled.o(i.oled_write_Byte)
    put_fat                                  0x0800c4d1   Thumb Code   322  ff.o(i.put_fat)
    rd_BigEnd16                              0x0800c613   Thumb Code    16  fmt_jpeg.o(i.rd_BigEnd16)
    rd_SOF0_2get_size                        0x0800c625   Thumb Code   244  fmt_jpeg.o(i.rd_SOF0_2get_size)
    rd_restore_HuffBit_RLE_Mat               0x0800c71d   Thumb Code  1518  fmt_jpeg.o(i.rd_restore_HuffBit_RLE_Mat)
    rd_restore_InvQuantize                   0x0800cd15   Thumb Code   134  fmt_jpeg.o(i.rd_restore_InvQuantize)
    rgb888_to_565                            0x0800ce0d   Thumb Code    58  fmt_jpeg.o(i.rgb888_to_565)
    round_double                             0x0800ce49   Thumb Code    64  fmt_jpeg.o(i.round_double)
    si24r1_TX_mode                           0x0800ce8d   Thumb Code   110  si24r1.o(i.si24r1_TX_mode)
    si24r1_TX_packet                         0x0800cf09   Thumb Code   132  si24r1.o(i.si24r1_TX_packet)
    si24r1_detect                            0x0800cf95   Thumb Code    66  si24r1.o(i.si24r1_detect)
    si24r1_read_buf                          0x0800cfe1   Thumb Code    52  si24r1.o(i.si24r1_read_buf)
    si24r1_read_once                         0x0800d019   Thumb Code    36  si24r1.o(i.si24r1_read_once)
    si24r1_spi_init                          0x0800d045   Thumb Code   116  si24r1.o(i.si24r1_spi_init)
    si24r1_write_buf                         0x0800d0c1   Thumb Code    50  si24r1.o(i.si24r1_write_buf)
    si24r1_write_once                        0x0800d0f9   Thumb Code    34  si24r1.o(i.si24r1_write_once)
    ascii_0806                               0x0800d2bc   Data         552  oled.o(.constdata)
    ascii_1206                               0x0800d4e4   Data        1140  oled.o(.constdata)
    ascii_1608                               0x0800d958   Data        1520  oled.o(.constdata)
    icon_drone                               0x0800df48   Data         288  oled.o(.constdata)
    icon_sdcard                              0x0800e068   Data         288  oled.o(.constdata)
    icon_remote                              0x0800e188   Data         288  oled.o(.constdata)
    icon_mouse                               0x0800e2a8   Data         288  oled.o(.constdata)
    dma_size                                 0x0800e3c8   Data           2  oled.o(.constdata)
    TX_ADDRESS                               0x0800e3ca   Data           5  si24r1.o(.constdata)
    RX_ADDRESS                               0x0800e3cf   Data           5  si24r1.o(.constdata)
    Joystick_DeviceDescriptor                0x0800f1c8   Data          18  usb_desc.o(.constdata)
    Joystick_ConfigDescriptor                0x0800f1da   Data          34  usb_desc.o(.constdata)
    Joystick_ReportDescriptor                0x0800f1fc   Data          74  usb_desc.o(.constdata)
    Joystick_StringLangID                    0x0800f246   Data           4  usb_desc.o(.constdata)
    Joystick_StringVendor                    0x0800f24a   Data          38  usb_desc.o(.constdata)
    Joystick_StringProduct                   0x0800f270   Data          30  usb_desc.o(.constdata)
    Region$$Table$$Base                      0x0800f290   Number         0  anon$$obj.o(Region$$Table)
    Region$$Table$$Limit                     0x0800f2b0   Number         0  anon$$obj.o(Region$$Table)
    once                                     0x20000000   Data           1  main.o(.data)
    mousekey                                 0x20000001   Data           1  main.o(.data)
    left_key_value                           0x20000002   Data           1  main.o(.data)
    right_key_value                          0x20000003   Data           1  main.o(.data)
    user1_key_value                          0x20000004   Data           1  main.o(.data)
    user2_key_value                          0x20000005   Data           1  main.o(.data)
    THR_unlock                               0x20000006   Data           1  main.o(.data)
    upper_item                               0x20000007   Data           1  main.o(.data)
    lower_item                               0x20000008   Data           1  main.o(.data)
    RF_detected                              0x20000009   Data           1  main.o(.data)
    SD_detected                              0x2000000a   Data           1  main.o(.data)
    FAT_mounted                              0x2000000b   Data           1  main.o(.data)
    adc_thrust                               0x2000000c   Data           2  main.o(.data)
    adc_yaw                                  0x2000000e   Data           2  main.o(.data)
    adc_pitch                                0x20000010   Data           2  main.o(.data)
    adc_roll                                 0x20000012   Data           2  main.o(.data)
    adc_battery                              0x20000014   Data           2  main.o(.data)
    Trig_NRF_TX                              0x20000016   Data           1  main.o(.data)
    Trig_LED_Scan                            0x20000017   Data           1  main.o(.data)
    Trig_oled_FPS                            0x20000018   Data           1  main.o(.data)
    Trig_adc_bat                             0x20000019   Data           1  main.o(.data)
    surface                                  0x2000001a   Data           1  main.o(.data)
    episode                                  0x2000001b   Data           1  main.o(.data)
    SystemCoreClock                          0x20000020   Data           4  system_stm32f10x.o(.data)
    AHBPrescTable                            0x20000024   Data          16  system_stm32f10x.o(.data)
    CSD_Tab                                  0x20000044   Data           4  sdio_sdcard.o(.data)
    CID_Tab                                  0x20000048   Data           4  sdio_sdcard.o(.data)
    StopCondition                            0x2000004c   Data           4  sdio_sdcard.o(.data)
    TransferError                            0x20000050   Data           1  sdio_sdcard.o(.data)
    TransferEnd                              0x20000054   Data           4  sdio_sdcard.o(.data)
    NRF_IRQ_TRIG                             0x20000058   Data           1  si24r1.o(.data)
    bw                                       0x20000064   Data           4  extfunc.o(.data)
    br                                       0x20000068   Data           4  extfunc.o(.data)
    f_res                                    0x2000006c   Data           1  extfunc.o(.data)
    cur_path                                 0x2000006d   Data          10  extfunc.o(.data)
    tot_size                                 0x20000078   Data           4  extfunc.o(.data)
    fre_size                                 0x2000007c   Data           4  extfunc.o(.data)
    sd_size                                  0x20000080   Data           4  extfunc.o(.data)
    StatusInfo                               0x2000008c   Data           2  usb_core.o(.data)
    Data_Mul_MaxPacketSize                   0x2000008e   Data           1  usb_core.o(.data)
    EPindex                                  0x20000090   Data           1  usb_init.o(.data)
    pInformation                             0x20000094   Data           4  usb_init.o(.data)
    pProperty                                0x20000098   Data           4  usb_init.o(.data)
    SaveState                                0x2000009c   Data           2  usb_init.o(.data)
    wInterrupt_Mask                          0x2000009e   Data           2  usb_init.o(.data)
    pUser_Standard_Requests                  0x200000a0   Data           4  usb_init.o(.data)
    SaveRState                               0x200000a4   Data           2  usb_int.o(.data)
    SaveTState                               0x200000a6   Data           2  usb_int.o(.data)
    PrevXferComplete                         0x200000a8   Data           1  hw_config.o(.data)
    Joystick_StringSerial                    0x200000a9   Data          26  usb_desc.o(.data)
    wIstr                                    0x200000c4   Data           2  usb_istr.o(.data)
    bIntPackSOF                              0x200000c6   Data           1  usb_istr.o(.data)
    esof_counter                             0x200000c8   Data           4  usb_istr.o(.data)
    wCNTR                                    0x200000cc   Data           4  usb_istr.o(.data)
    pEpInt_IN                                0x200000d0   Data          28  usb_istr.o(.data)
    pEpInt_OUT                               0x200000ec   Data          28  usb_istr.o(.data)
    ProtocolValue                            0x20000108   Data           4  usb_prop.o(.data)
    Device_Table                             0x2000010c   Data           2  usb_prop.o(.data)
    Device_Property                          0x20000110   Data          48  usb_prop.o(.data)
    User_Standard_Requests                   0x20000140   Data          36  usb_prop.o(.data)
    Device_Descriptor                        0x20000164   Data           8  usb_prop.o(.data)
    Config_Descriptor                        0x2000016c   Data           8  usb_prop.o(.data)
    Joystick_Report_Descriptor               0x20000174   Data           8  usb_prop.o(.data)
    Mouse_Hid_Descriptor                     0x2000017c   Data           8  usb_prop.o(.data)
    String_Descriptor                        0x20000184   Data          32  usb_prop.o(.data)
    bDeviceState                             0x200001a4   Data           4  usb_pwr.o(.data)
    fSuspendEnabled                          0x200001a8   Data           1  usb_pwr.o(.data)
    ResumeS                                  0x200001a9   Data           2  usb_pwr.o(.data)
    remotewakeupon                           0x200001ac   Data           4  usb_pwr.o(.data)
    __stdout                                 0x200001b4   Data           4  usart.o(.data)
    USART_RX_STA                             0x200001b8   Data           2  usart.o(.data)
    __microlib_freelist                      0x200001bc   Data           4  mvars.o(.data)
    __microlib_freelist_initialised          0x200001c0   Data           4  mvars.o(.data)
    ADC_Mem                                  0x200001c4   Data          20  main.o(.bss)
    str                                      0x200001d8   Data         256  main.o(.bss)
    Aircraft_RFbuf                           0x200002d8   Data          10  main.o(.bss)
    TeleCtrl_RFbuf                           0x200002e2   Data          20  main.o(.bss)
    DMA_InitStructure                        0x200002f8   Data          44  dma.o(.bss)
    SPI_InitStructure                        0x20000324   Data          18  spi.o(.bss)
    Frame_Buffer                             0x20000336   Data       32768  oled.o(.bss)
    SDCardInfo                               0x20008338   Data          88  sdio_sdcard.o(.bss)
    SDIO_InitStructure                       0x20008390   Data          24  sdio_sdcard.o(.bss)
    SDIO_CmdInitStructure                    0x200083a8   Data          20  sdio_sdcard.o(.bss)
    SDIO_DataInitStructure                   0x200083bc   Data          24  sdio_sdcard.o(.bss)
    fs                                       0x200086d4   Data         560  extfunc.o(.bss)
    fp                                       0x20008904   Data         552  extfunc.o(.bss)
    fno                                      0x20008b2c   Data          32  extfunc.o(.bss)
    filename                                 0x20008b4c   Data        3810  extfunc.o(.bss)
    Device_Info                              0x20009e80   Data          28  usb_init.o(.bss)
    EP                                       0x20009e9c   Data          32  usb_pwr.o(.bss)
    USART_RX_BUF                             0x20009ebc   Data         200  usart.o(.bss)
    __heap_base                              0x20009f88   Data           0  startup_stm32f10x_hd.o(HEAP)
    __heap_limit                             0x2000a588   Data           0  startup_stm32f10x_hd.o(HEAP)
    __initial_sp                             0x2000b888   Data           0  startup_stm32f10x_hd.o(STACK)



==============================================================================

Memory Map of the image

  Image Entry point : 0x08000131

  Load Region LR_IROM1 (Base: 0x08000000, Size: 0x0000f474, Max: 0x00040000, ABSOLUTE, COMPRESSED[0x0000f34c])

    Execution Region ER_IROM1 (Base: 0x08000000, Size: 0x0000f2b0, Max: 0x00040000, ABSOLUTE)

    Base Addr    Size         Type   Attr      Idx    E Section Name        Object

    0x08000000   0x00000130   Data   RO         2653    RESET               startup_stm32f10x_hd.o
    0x08000130   0x00000000   Code   RO         4414  * .ARM.Collect$$$$00000000  mc_w.l(entry.o)
    0x08000130   0x00000004   Code   RO         4750    .ARM.Collect$$$$00000001  mc_w.l(entry2.o)
    0x08000134   0x00000004   Code   RO         4753    .ARM.Collect$$$$00000004  mc_w.l(entry5.o)
    0x08000138   0x00000000   Code   RO         4755    .ARM.Collect$$$$00000008  mc_w.l(entry7b.o)
    0x08000138   0x00000000   Code   RO         4757    .ARM.Collect$$$$0000000A  mc_w.l(entry8b.o)
    0x08000138   0x00000008   Code   RO         4758    .ARM.Collect$$$$0000000B  mc_w.l(entry9a.o)
    0x08000140   0x00000000   Code   RO         4760    .ARM.Collect$$$$0000000D  mc_w.l(entry10a.o)
    0x08000140   0x00000000   Code   RO         4762    .ARM.Collect$$$$0000000F  mc_w.l(entry11a.o)
    0x08000140   0x00000004   Code   RO         4751    .ARM.Collect$$$$00002712  mc_w.l(entry2.o)
    0x08000144   0x00000024   Code   RO         2654    .text               startup_stm32f10x_hd.o
    0x08000168   0x00000062   Code   RO         4417    .text               mc_w.l(uldiv.o)
    0x080001ca   0x00000024   Code   RO         4419    .text               mc_w.l(memcpya.o)
    0x080001ee   0x00000024   Code   RO         4421    .text               mc_w.l(memseta.o)
    0x08000212   0x00000024   Code   RO         4423    .text               mc_w.l(strstr.o)
    0x08000236   0x00000018   Code   RO         4425    .text               mc_w.l(strncpy.o)
    0x0800024e   0x0000000e   Code   RO         4427    .text               mc_w.l(strlen.o)
    0x0800025c   0x00000064   Code   RO         4720    .text               mf_w.l(fmul.o)
    0x080002c0   0x0000007c   Code   RO         4722    .text               mf_w.l(fdiv.o)
    0x0800033c   0x0000014e   Code   RO         4724    .text               mf_w.l(dadd.o)
    0x0800048a   0x000000e4   Code   RO         4726    .text               mf_w.l(dmul.o)
    0x0800056e   0x00000012   Code   RO         4728    .text               mf_w.l(fflti.o)
    0x08000580   0x0000000a   Code   RO         4730    .text               mf_w.l(ffltui.o)
    0x0800058a   0x00000022   Code   RO         4732    .text               mf_w.l(dflti.o)
    0x080005ac   0x00000028   Code   RO         4734    .text               mf_w.l(ffixui.o)
    0x080005d4   0x0000003e   Code   RO         4736    .text               mf_w.l(dfixi.o)
    0x08000612   0x00000032   Code   RO         4738    .text               mf_w.l(dfixui.o)
    0x08000644   0x00000026   Code   RO         4740    .text               mf_w.l(f2d.o)
    0x0800066a   0x00000002   PAD
    0x0800066c   0x00000030   Code   RO         4742    .text               mf_w.l(cdcmple.o)
    0x0800069c   0x00000030   Code   RO         4744    .text               mf_w.l(cdrcmple.o)
    0x080006cc   0x00000038   Code   RO         4746    .text               mf_w.l(d2f.o)
    0x08000704   0x00000014   Code   RO         4748    .text               mf_w.l(cfcmple.o)
    0x08000718   0x0000001e   Code   RO         4766    .text               mc_w.l(llshl.o)
    0x08000736   0x00000020   Code   RO         4768    .text               mc_w.l(llushr.o)
    0x08000756   0x00000024   Code   RO         4770    .text               mc_w.l(llsshr.o)
    0x0800077a   0x00000000   Code   RO         4774    .text               mc_w.l(iusefp.o)
    0x0800077a   0x0000006e   Code   RO         4775    .text               mf_w.l(fepilogue.o)
    0x080007e8   0x000000ba   Code   RO         4777    .text               mf_w.l(depilogue.o)
    0x080008a2   0x00000002   PAD
    0x080008a4   0x00000024   Code   RO         4783    .text               mc_w.l(init.o)
    0x080008c8   0x00000056   Code   RO         4793    .text               mc_w.l(__dczerorl2.o)
    0x0800091e   0x00000016   Code   RO         2700    i.ADC_Cmd           stm32f10x_adc.o
    0x08000934   0x00000016   Code   RO         2701    i.ADC_DMACmd        stm32f10x_adc.o
    0x0800094a   0x00000002   PAD
    0x0800094c   0x0000005c   Code   RO         2702    i.ADC_DeInit        stm32f10x_adc.o
    0x080009a8   0x00000014   Code   RO         2708    i.ADC_GetCalibrationStatus  stm32f10x_adc.o
    0x080009bc   0x00000014   Code   RO         2714    i.ADC_GetResetCalibrationStatus  stm32f10x_adc.o
    0x080009d0   0x00000050   Code   RO         2718    i.ADC_Init          stm32f10x_adc.o
    0x08000a20   0x000000b8   Code   RO         2722    i.ADC_RegularChannelConfig  stm32f10x_adc.o
    0x08000ad8   0x0000000a   Code   RO         2723    i.ADC_ResetCalibration  stm32f10x_adc.o
    0x08000ae2   0x00000016   Code   RO         2725    i.ADC_SoftwareStartConvCmd  stm32f10x_adc.o
    0x08000af8   0x0000000a   Code   RO         2727    i.ADC_StartCalibration  stm32f10x_adc.o
    0x08000b02   0x00000002   PAD
    0x08000b04   0x00000224   Code   RO         1623    i.Build_Huffman_Table_SD  fmt_jpeg.o
    0x08000d28   0x00000004   Code   RO          186    i.BusFault_Handler  stm32f10x_it.o
    0x08000d2c   0x0000000c   Code   RO         1886    i.ByteSwap          usb_regs.o
    0x08000d38   0x00000288   Code   RO         1839    i.CTR_LP            usb_int.o
    0x08000fc0   0x00000034   Code   RO         1887    i.ClearDTOG_RX      usb_regs.o
    0x08000ff4   0x00000034   Code   RO         1888    i.ClearDTOG_TX      usb_regs.o
    0x08001028   0x00000028   Code   RO         1893    i.Clear_Status_Out  usb_regs.o
    0x08001050   0x0000002c   Code   RO          667    i.CmdError          sdio_sdcard.o
    0x0800107c   0x00000134   Code   RO          668    i.CmdResp1Error     sdio_sdcard.o
    0x080011b0   0x0000004c   Code   RO          669    i.CmdResp2Error     sdio_sdcard.o
    0x080011fc   0x00000038   Code   RO          670    i.CmdResp3Error     sdio_sdcard.o
    0x08001234   0x0000009c   Code   RO          671    i.CmdResp6Error     sdio_sdcard.o
    0x080012d0   0x0000004c   Code   RO          672    i.CmdResp7Error     sdio_sdcard.o
    0x0800131c   0x0000001c   Code   RO         3608    i.DMA_ClearFlag     stm32f10x_dma.o
    0x08001338   0x00000018   Code   RO         3610    i.DMA_Cmd           stm32f10x_dma.o
    0x08001350   0x0000014c   Code   RO         3611    i.DMA_DeInit        stm32f10x_dma.o
    0x0800149c   0x0000002c   Code   RO         3613    i.DMA_GetFlagStatus  stm32f10x_dma.o
    0x080014c8   0x0000003c   Code   RO         3616    i.DMA_Init          stm32f10x_dma.o
    0x08001504   0x000000c0   Code   RO         1696    i.DataStageIn       usb_core.o
    0x080015c4   0x000000bc   Code   RO         1697    i.DataStageOut      usb_core.o
    0x08001680   0x00000298   Code   RO         1698    i.Data_Setup0       usb_core.o
    0x08001918   0x00000002   Code   RO          187    i.DebugMon_Handler  stm32f10x_it.o
    0x0800191a   0x00000002   PAD
    0x0800191c   0x0000181c   Code   RO         1624    i.Dec_JPEG_to_YuvRgb  fmt_jpeg.o
    0x08003138   0x0000000c   Code   RO         2349    i.EP1_IN_Callback   usb_endp.o
    0x08003144   0x00000074   Code   RO          307    i.EXTI15_10_IRQHandler  irqhandler.o
    0x080031b8   0x00000038   Code   RO          308    i.EXTI3_IRQHandler  irqhandler.o
    0x080031f0   0x0000001c   Code   RO          889    i.EXTI4_IRQHandler  si24r1.o
    0x0800320c   0x0000003c   Code   RO          309    i.EXTI9_5_IRQHandler  irqhandler.o
    0x08003248   0x0000000c   Code   RO         3411    i.EXTI_ClearITPendingBit  stm32f10x_exti.o
    0x08003254   0x00000028   Code   RO         3415    i.EXTI_GetITStatus  stm32f10x_exti.o
    0x0800327c   0x00000094   Code   RO         3416    i.EXTI_Init         stm32f10x_exti.o
    0x08003310   0x0000000c   Code   RO         2270    i.Enter_LowPowerMode  hw_config.o
    0x0800331c   0x00000194   Code   RO          673    i.FindSCR           sdio_sdcard.o
    0x080034b0   0x00000040   Code   RO         2919    i.GPIO_EXTILineConfig  stm32f10x_gpio.o
    0x080034f0   0x00000116   Code   RO         2922    i.GPIO_Init         stm32f10x_gpio.o
    0x08003606   0x00000012   Code   RO         2926    i.GPIO_ReadInputDataBit  stm32f10x_gpio.o
    0x08003618   0x00000004   Code   RO         2929    i.GPIO_ResetBits    stm32f10x_gpio.o
    0x0800361c   0x00000004   Code   RO         2930    i.GPIO_SetBits      stm32f10x_gpio.o
    0x08003620   0x00000020   Code   RO         1905    i.GetEPRxAddr       usb_regs.o
    0x08003640   0x00000020   Code   RO         1908    i.GetEPTxAddr       usb_regs.o
    0x08003660   0x00000034   Code   RO         2271    i.Get_SerialNum     hw_config.o
    0x08003694   0x00000004   Code   RO          188    i.HardFault_Handler  stm32f10x_it.o
    0x08003698   0x00000070   Code   RO         1699    i.In0_Process       usb_core.o
    0x08003708   0x0000003e   Code   RO         2272    i.IntToUnicode      hw_config.o
    0x08003746   0x00000002   PAD
    0x08003748   0x0000011c   Code   RO         1625    i.Inverse_DCT       fmt_jpeg.o
    0x08003864   0x0000007c   Code   RO         2383    i.Joystick_Data_Setup  usb_prop.o
    0x080038e0   0x00000014   Code   RO         2384    i.Joystick_GetConfigDescriptor  usb_prop.o
    0x080038f4   0x00000014   Code   RO         2385    i.Joystick_GetDeviceDescriptor  usb_prop.o
    0x08003908   0x00000014   Code   RO         2386    i.Joystick_GetHIDDescriptor  usb_prop.o
    0x0800391c   0x0000001c   Code   RO         2387    i.Joystick_GetProtocolValue  usb_prop.o
    0x08003938   0x00000014   Code   RO         2388    i.Joystick_GetReportDescriptor  usb_prop.o
    0x0800394c   0x00000028   Code   RO         2389    i.Joystick_GetStringDescriptor  usb_prop.o
    0x08003974   0x00000016   Code   RO         2390    i.Joystick_Get_Interface_Setting  usb_prop.o
    0x0800398a   0x00000002   PAD
    0x0800398c   0x00000024   Code   RO         2391    i.Joystick_NoData_Setup  usb_prop.o
    0x080039b0   0x000000a4   Code   RO         2392    i.Joystick_Reset    usb_prop.o
    0x08003a54   0x00000030   Code   RO         2273    i.Joystick_Send     hw_config.o
    0x08003a84   0x00000018   Code   RO         2393    i.Joystick_SetConfiguration  usb_prop.o
    0x08003a9c   0x0000000c   Code   RO         2394    i.Joystick_SetDeviceAddress  usb_prop.o
    0x08003aa8   0x00000018   Code   RO         2395    i.Joystick_SetProtocol  usb_prop.o
    0x08003ac0   0x00000002   Code   RO         2396    i.Joystick_Status_In  usb_prop.o
    0x08003ac2   0x00000002   Code   RO         2397    i.Joystick_Status_Out  usb_prop.o
    0x08003ac4   0x00000028   Code   RO         2398    i.Joystick_init     usb_prop.o
    0x08003aec   0x00000020   Code   RO         2274    i.Leave_LowPowerMode  hw_config.o
    0x08003b0c   0x00000250   Code   RO          375    i.Lithium_Battery_percent  adc.o
    0x08003d5c   0x00000004   Code   RO          189    i.MemManage_Handler  stm32f10x_it.o
    0x08003d60   0x00000002   Code   RO          190    i.NMI_Handler       stm32f10x_it.o
    0x08003d62   0x00000002   Code   RO         1700    i.NOP_Process       usb_core.o
    0x08003d64   0x00000070   Code   RO         2658    i.NVIC_Init         misc.o
    0x08003dd4   0x00000014   Code   RO         2659    i.NVIC_PriorityGroupConfig  misc.o
    0x08003de8   0x00000138   Code   RO         1701    i.NoData_Setup0     usb_core.o
    0x08003f20   0x00000050   Code   RO         1702    i.Out0_Process      usb_core.o
    0x08003f70   0x00000028   Code   RO         1868    i.PMAToUserBufferCopy  usb_mem.o
    0x08003f98   0x00000002   Code   RO          191    i.PendSV_Handler    stm32f10x_it.o
    0x08003f9a   0x00000002   PAD
    0x08003f9c   0x00000048   Code   RO         1703    i.Post0_Process     usb_core.o
    0x08003fe4   0x00000040   Code   RO         2497    i.PowerOn           usb_pwr.o
    0x08004024   0x00000018   Code   RO         3030    i.RCC_ADCCLKConfig  stm32f10x_rcc.o
    0x0800403c   0x00000020   Code   RO         3031    i.RCC_AHBPeriphClockCmd  stm32f10x_rcc.o
    0x0800405c   0x00000020   Code   RO         3032    i.RCC_APB1PeriphClockCmd  stm32f10x_rcc.o
    0x0800407c   0x00000020   Code   RO         3034    i.RCC_APB2PeriphClockCmd  stm32f10x_rcc.o
    0x0800409c   0x00000020   Code   RO         3035    i.RCC_APB2PeriphResetCmd  stm32f10x_rcc.o
    0x080040bc   0x0000000c   Code   RO         3060    i.RCC_USBCLKConfig  stm32f10x_rcc.o
    0x080040c8   0x000000d0   Code   RO         2498    i.Resume            usb_pwr.o
    0x08004198   0x00000024   Code   RO         2499    i.Resume_Init       usb_pwr.o
    0x080041bc   0x0000010c   Code   RO          675    i.SDEnWideBus       sdio_sdcard.o
    0x080042c8   0x0000000c   Code   RO         3681    i.SDIO_ClearFlag    stm32f10x_sdio.o
    0x080042d4   0x0000000c   Code   RO         3682    i.SDIO_ClearITPendingBit  stm32f10x_sdio.o
    0x080042e0   0x0000000c   Code   RO         3683    i.SDIO_ClockCmd     stm32f10x_sdio.o
    0x080042ec   0x0000000c   Code   RO         3686    i.SDIO_DMACmd       stm32f10x_sdio.o
    0x080042f8   0x00000030   Code   RO         3687    i.SDIO_DataConfig   stm32f10x_sdio.o
    0x08004328   0x00000024   Code   RO         3689    i.SDIO_DeInit       stm32f10x_sdio.o
    0x0800434c   0x0000000c   Code   RO         3690    i.SDIO_GetCommandResponse  stm32f10x_sdio.o
    0x08004358   0x00000018   Code   RO         3693    i.SDIO_GetFlagStatus  stm32f10x_sdio.o
    0x08004370   0x00000010   Code   RO         3695    i.SDIO_GetPowerState  stm32f10x_sdio.o
    0x08004380   0x00000018   Code   RO         3696    i.SDIO_GetResponse  stm32f10x_sdio.o
    0x08004398   0x00000008   Code   RO          310    i.SDIO_IRQHandler   irqhandler.o
    0x080043a0   0x00000020   Code   RO         3697    i.SDIO_ITConfig     stm32f10x_sdio.o
    0x080043c0   0x00000030   Code   RO         3698    i.SDIO_Init         stm32f10x_sdio.o
    0x080043f0   0x00000020   Code   RO          676    i.SDIO_NVIC_Config  sdio_sdcard.o
    0x08004410   0x0000000c   Code   RO         3699    i.SDIO_ReadData     stm32f10x_sdio.o
    0x0800441c   0x00000068   Code   RO          677    i.SDIO_SD_GPIO_Config  sdio_sdcard.o
    0x08004484   0x0000002c   Code   RO         3701    i.SDIO_SendCommand  stm32f10x_sdio.o
    0x080044b0   0x0000001c   Code   RO         3703    i.SDIO_SetPowerState  stm32f10x_sdio.o
    0x080044cc   0x00000064   Code   RO          678    i.SD_DMA_RxConfig   sdio_sdcard.o
    0x08004530   0x00000064   Code   RO          679    i.SD_DMA_TxConfig   sdio_sdcard.o
    0x08004594   0x00000094   Code   RO          681    i.SD_EnableWideBusOperation  sdio_sdcard.o
    0x08004628   0x000002c8   Code   RO          683    i.SD_GetCardInfo    sdio_sdcard.o
    0x080048f0   0x0000001a   Code   RO          685    i.SD_GetState       sdio_sdcard.o
    0x0800490a   0x0000001e   Code   RO          686    i.SD_GetStatus      sdio_sdcard.o
    0x08004928   0x000000b0   Code   RO          688    i.SD_Init           sdio_sdcard.o
    0x080049d8   0x00000128   Code   RO          689    i.SD_InitializeCards  sdio_sdcard.o
    0x08004b00   0x00000190   Code   RO          691    i.SD_PowerON        sdio_sdcard.o
    0x08004c90   0x00000058   Code   RO          692    i.SD_ProcessIRQSrc  sdio_sdcard.o
    0x08004ce8   0x000000e8   Code   RO          694    i.SD_ReadMultiBlocks  sdio_sdcard.o
    0x08004dd0   0x00000034   Code   RO          695    i.SD_SelectDeselect  sdio_sdcard.o
    0x08004e04   0x00000038   Code   RO          697    i.SD_SendStatus     sdio_sdcard.o
    0x08004e3c   0x00000040   Code   RO          699    i.SD_WaitReadOperation  sdio_sdcard.o
    0x08004e7c   0x00000040   Code   RO          700    i.SD_WaitWriteOperation  sdio_sdcard.o
    0x08004ebc   0x000000dc   Code   RO          701    i.SD_WriteBlock     sdio_sdcard.o
    0x08004f98   0x00000148   Code   RO          702    i.SD_WriteMultiBlocks  sdio_sdcard.o
    0x080050e0   0x00000078   Code   RO          469    i.SPI1_Init         spi.o
    0x08005158   0x00000054   Code   RO          470    i.SPI1_ReadWriteByte  spi.o
    0x080051ac   0x0000007c   Code   RO          472    i.SPI2_Init         spi.o
    0x08005228   0x00000054   Code   RO          473    i.SPI2_ReadWriteByte  spi.o
    0x0800527c   0x00000018   Code   RO         3469    i.SPI_Cmd           stm32f10x_spi.o
    0x08005294   0x00000012   Code   RO         3477    i.SPI_I2S_GetFlagStatus  stm32f10x_spi.o
    0x080052a6   0x00000006   Code   RO         3480    i.SPI_I2S_ReceiveData  stm32f10x_spi.o
    0x080052ac   0x00000004   Code   RO         3481    i.SPI_I2S_SendData  stm32f10x_spi.o
    0x080052b0   0x0000003c   Code   RO         3482    i.SPI_Init          stm32f10x_spi.o
    0x080052ec   0x00000002   Code   RO          192    i.SVC_Handler       stm32f10x_it.o
    0x080052ee   0x00000002   PAD
    0x080052f0   0x00000010   Code   RO         1916    i.SetBTABLE         usb_regs.o
    0x08005300   0x00000050   Code   RO         1704    i.SetDeviceAddress  usb_core.o
    0x08005350   0x00000024   Code   RO         1930    i.SetEPRxAddr       usb_regs.o
    0x08005374   0x0000004c   Code   RO         1931    i.SetEPRxCount      usb_regs.o
    0x080053c0   0x00000040   Code   RO         1932    i.SetEPRxStatus     usb_regs.o
    0x08005400   0x00000034   Code   RO         1933    i.SetEPRxValid      usb_regs.o
    0x08005434   0x00000020   Code   RO         1934    i.SetEPTxAddr       usb_regs.o
    0x08005454   0x0000001c   Code   RO         1935    i.SetEPTxCount      usb_regs.o
    0x08005470   0x00000040   Code   RO         1936    i.SetEPTxStatus     usb_regs.o
    0x080054b0   0x00000034   Code   RO         1937    i.SetEPTxValid      usb_regs.o
    0x080054e4   0x00000024   Code   RO         1938    i.SetEPType         usb_regs.o
    0x08005508   0x00000008   Code   RO          272    i.SetSysClock       system_stm32f10x.o
    0x08005510   0x000000e0   Code   RO          273    i.SetSysClockTo72   system_stm32f10x.o
    0x080055f0   0x00000012   Code   RO         2275    i.Set_USBClock      hw_config.o
    0x08005602   0x00000002   PAD
    0x08005604   0x000000b8   Code   RO         1705    i.Setup0_Process    usb_core.o
    0x080056bc   0x0000016c   Code   RO         1706    i.Standard_ClearFeature  usb_core.o
    0x08005828   0x0000002c   Code   RO         1707    i.Standard_GetConfiguration  usb_core.o
    0x08005854   0x00000024   Code   RO         1708    i.Standard_GetDescriptorData  usb_core.o
    0x08005878   0x0000002c   Code   RO         1709    i.Standard_GetInterface  usb_core.o
    0x080058a4   0x00000100   Code   RO         1710    i.Standard_GetStatus  usb_core.o
    0x080059a4   0x00000048   Code   RO         1711    i.Standard_SetConfiguration  usb_core.o
    0x080059ec   0x00000028   Code   RO         1712    i.Standard_SetDeviceFeature  usb_core.o
    0x08005a14   0x000000d0   Code   RO         1713    i.Standard_SetEndPointFeature  usb_core.o
    0x08005ae4   0x0000006c   Code   RO         1714    i.Standard_SetInterface  usb_core.o
    0x08005b50   0x0000009c   Code   RO         2500    i.Suspend           usb_pwr.o
    0x08005bec   0x00000028   Code   RO         2662    i.SysTick_CLKSourceConfig  misc.o
    0x08005c14   0x00000002   Code   RO          193    i.SysTick_Handler   stm32f10x_it.o
    0x08005c16   0x00000002   PAD
    0x08005c18   0x00000060   Code   RO          275    i.SystemInit        system_stm32f10x.o
    0x08005c78   0x00000060   Code   RO          978    i.TIM3_Config_Init  timer.o
    0x08005cd8   0x000000b8   Code   RO          311    i.TIM3_IRQHandler   irqhandler.o
    0x08005d90   0x00000006   Code   RO         3877    i.TIM_ClearITPendingBit  stm32f10x_tim.o
    0x08005d96   0x00000018   Code   RO         3882    i.TIM_Cmd           stm32f10x_tim.o
    0x08005dae   0x00000022   Code   RO         3903    i.TIM_GetITStatus   stm32f10x_tim.o
    0x08005dd0   0x00000012   Code   RO         3907    i.TIM_ITConfig      stm32f10x_tim.o
    0x08005de2   0x00000002   PAD
    0x08005de4   0x000000a4   Code   RO         3953    i.TIM_TimeBaseInit  stm32f10x_tim.o
    0x08005e88   0x00000088   Code   RO         2594    i.USART1_IRQHandler  usart.o
    0x08005f10   0x00000054   Code   RO         3238    i.USART_GetITStatus  stm32f10x_usart.o
    0x08005f64   0x0000000a   Code   RO         3248    i.USART_ReceiveData  stm32f10x_usart.o
    0x08005f6e   0x0000000c   Code   RO          312    i.USBWakeUp_IRQHandler  irqhandler.o
    0x08005f7a   0x00000002   Code   RO         2276    i.USB_Cable_Config  hw_config.o
    0x08005f7c   0x0000003c   Code   RO         1815    i.USB_Init          usb_init.o
    0x08005fb8   0x00000054   Code   RO         2277    i.USB_Interrupts_Config  hw_config.o
    0x0800600c   0x000001cc   Code   RO         2362    i.USB_Istr          usb_istr.o
    0x080061d8   0x00000008   Code   RO          313    i.USB_LP_CAN1_RX0_IRQHandler  irqhandler.o
    0x080061e0   0x00000058   Code   RO         2278    i.USB_Port_Set      hw_config.o
    0x08006238   0x00000024   Code   RO         2246    i.USB_SIL_Init      usb_sil.o
    0x0800625c   0x0000002e   Code   RO         2248    i.USB_SIL_Write     usb_sil.o
    0x0800628a   0x00000004   Code   RO          194    i.UsageFault_Handler  stm32f10x_it.o
    0x0800628e   0x00000002   PAD
    0x08006290   0x00000038   Code   RO         1869    i.UserToPMABufferCopy  usb_mem.o
    0x080062c8   0x00000028   Code   RO         4500    i.__0sprintf$2      mc_w.l(printf2.o)
    0x080062f0   0x0000000e   Code   RO         4787    i.__scatterload_copy  mc_w.l(handlers.o)
    0x080062fe   0x00000002   Code   RO         4788    i.__scatterload_null  mc_w.l(handlers.o)
    0x08006300   0x0000000e   Code   RO         4789    i.__scatterload_zeroinit  mc_w.l(handlers.o)
    0x0800630e   0x000000d6   Code   RO         4505    i._printf_core      mc_w.l(printf2.o)
    0x080063e4   0x0000000a   Code   RO         4507    i._sputc            mc_w.l(printf2.o)
    0x080063ee   0x00000002   PAD
    0x080063f0   0x0000011c   Code   RO          376    i.adc1_init         adc.o
    0x0800650c   0x0000001c   Code   RO          378    i.adc_dma_start     adc.o
    0x08006528   0x00000090   Code   RO         1130    i.check_fs          ff.o
    0x080065b8   0x00000014   Code   RO         1131    i.chk_chr           ff.o
    0x080065cc   0x00000032   Code   RO         1132    i.clmt_clust        ff.o
    0x080065fe   0x0000001a   Code   RO         1133    i.clust2sect        ff.o
    0x08006618   0x000000a0   Code   RO         1134    i.cmp_lfn           ff.o
    0x080066b8   0x000000d6   Code   RO         1135    i.create_chain      ff.o
    0x0800678e   0x00000002   PAD
    0x08006790   0x00000230   Code   RO         1136    i.create_name       ff.o
    0x080069c0   0x00000044   Code   RO         2539    i.delay_init        delay.o
    0x08006a04   0x0000004c   Code   RO         2540    i.delay_ms          delay.o
    0x08006a50   0x0000005c   Code   RO         1137    i.dir_alloc         ff.o
    0x08006aac   0x000000ea   Code   RO         1138    i.dir_find          ff.o
    0x08006b96   0x0000010e   Code   RO         1139    i.dir_next          ff.o
    0x08006ca4   0x000000c6   Code   RO         1140    i.dir_read          ff.o
    0x08006d6a   0x0000012a   Code   RO         1141    i.dir_register      ff.o
    0x08006e94   0x0000009e   Code   RO         1143    i.dir_sdi           ff.o
    0x08006f32   0x0000001c   Code   RO         1081    i.disk_initialize   diskio.o
    0x08006f4e   0x00000002   PAD
    0x08006f50   0x00000058   Code   RO         1082    i.disk_ioctl        diskio.o
    0x08006fa8   0x000000b8   Code   RO         1083    i.disk_read         diskio.o
    0x08007060   0x0000000e   Code   RO         1084    i.disk_status       diskio.o
    0x0800706e   0x00000002   PAD
    0x08007070   0x000000d4   Code   RO         1085    i.disk_write        diskio.o
    0x08007144   0x00000054   Code   RO          448    i.dma_config        dma.o
    0x08007198   0x000004a4   Code   RO         1458    i.ef_FileList_iteration  extfunc.o
    0x0800763c   0x0000018c   Code   RO         1459    i.ef_SD_GetGbkMatrix  extfunc.o
    0x080077c8   0x00000150   Code   RO         1460    i.ef_check_extension  extfunc.o
    0x08007918   0x00000020   Code   RO         1461    i.ef_checkfile      extfunc.o
    0x08007938   0x00000148   Code   RO         1462    i.ef_display_SDcapcity  extfunc.o
    0x08007a80   0x00000180   Code   RO         1463    i.ef_display_filelist  extfunc.o
    0x08007c00   0x00000058   Code   RO         1464    i.ef_getcapacity    extfunc.o
    0x08007c58   0x00000600   Code   RO         1465    i.ef_multimedia_pic_bin  extfunc.o
    0x08008258   0x00000708   Code   RO         1575    i.ef_multimedia_pic_bmp  picturelib.o
    0x08008960   0x00000134   Code   RO         1576    i.ef_multimedia_pic_jpeg  picturelib.o
    0x08008a94   0x0000010c   Code   RO         1466    i.ef_multimedia_txt  extfunc.o
    0x08008ba0   0x000000a0   Code   RO         1467    i.ef_scanfiles      extfunc.o
    0x08008c40   0x000000a2   Code   RO          436    i.exti_init         exti.o
    0x08008ce2   0x00000020   Code   RO         1145    i.f_close           ff.o
    0x08008d02   0x00000016   Code   RO         1146    i.f_closedir        ff.o
    0x08008d18   0x00000102   Code   RO         1147    i.f_getfree         ff.o
    0x08008e1a   0x000002ac   Code   RO         1149    i.f_lseek           ff.o
    0x080090c6   0x00000002   PAD
    0x080090c8   0x0000005c   Code   RO         1152    i.f_mount           ff.o
    0x08009124   0x0000017c   Code   RO         1153    i.f_open            ff.o
    0x080092a0   0x00000072   Code   RO         1154    i.f_opendir         ff.o
    0x08009312   0x000001b0   Code   RO         1158    i.f_read            ff.o
    0x080094c2   0x00000060   Code   RO         1159    i.f_readdir         ff.o
    0x08009522   0x00000040   Code   RO         1161    i.f_stat            ff.o
    0x08009562   0x000000b0   Code   RO         1162    i.f_sync            ff.o
    0x08009612   0x000001ea   Code   RO         1166    i.f_write           ff.o
    0x080097fc   0x0000004c   Code   RO         1546    i.ff_convert        ccsbcs.o
    0x08009848   0x0000005c   Code   RO         1547    i.ff_wtoupper       ccsbcs.o
    0x080098a4   0x00000394   Code   RO         1167    i.find_volume       ff.o
    0x08009c38   0x00000080   Code   RO         1168    i.fit_lfn           ff.o
    0x08009cb8   0x00000090   Code   RO         1169    i.follow_path       ff.o
    0x08009d48   0x00000050   Code   RO         4692    i.free              mc_w.l(malloc.o)
    0x08009d98   0x000000b4   Code   RO         1170    i.gen_numname       ff.o
    0x08009e4c   0x000000f2   Code   RO         1171    i.get_fat           ff.o
    0x08009f3e   0x00000002   PAD
    0x08009f40   0x00000008   Code   RO         1086    i.get_fattime       diskio.o
    0x08009f48   0x00000102   Code   RO         1172    i.get_fileinfo      ff.o
    0x0800a04a   0x00000048   Code   RO         1173    i.get_ldnumber      ff.o
    0x0800a092   0x00000002   PAD
    0x0800a094   0x0000006c   Code   RO          405    i.key_init          key.o
    0x0800a100   0x00000020   Code   RO         1174    i.ld_clust          ff.o
    0x0800a120   0x00000060   Code   RO          424    i.led_init          led.o
    0x0800a180   0x0000133c   Code   RO            1    i.main              main.o
    0x0800b4bc   0x0000006c   Code   RO         4693    i.malloc            mc_w.l(malloc.o)
    0x0800b528   0x00000026   Code   RO         1175    i.mem_cmp           ff.o
    0x0800b54e   0x0000001a   Code   RO         1176    i.mem_cpy           ff.o
    0x0800b568   0x00000014   Code   RO         1177    i.mem_set           ff.o
    0x0800b57c   0x00000034   Code   RO         1178    i.move_window       ff.o
    0x0800b5b0   0x00000016   Code   RO          508    i.mypow             oled.o
    0x0800b5c6   0x00000002   PAD
    0x0800b5c8   0x00000034   Code   RO          509    i.oled_buffer_clear  oled.o
    0x0800b5fc   0x00000014   Code   RO          510    i.oled_clear        oled.o
    0x0800b610   0x000000b8   Code   RO          643    i.oled_draw_line    oled_mathpaint.o
    0x0800b6c8   0x0000001c   Code   RO          513    i.oled_draw_point   oled.o
    0x0800b6e4   0x0000004a   Code   RO          644    i.oled_draw_rectangle  oled_mathpaint.o
    0x0800b72e   0x00000002   PAD
    0x0800b730   0x0000004c   Code   RO          514    i.oled_refresh      oled.o
    0x0800b77c   0x00000134   Code   RO          515    i.oled_show_Bin_Array  oled.o
    0x0800b8b0   0x000000d6   Code   RO          517    i.oled_show_GBK     oled.o
    0x0800b986   0x00000002   PAD
    0x0800b988   0x000000f8   Code   RO          519    i.oled_show_char    oled.o
    0x0800ba80   0x000001ee   Code   RO          520    i.oled_show_float   oled.o
    0x0800bc6e   0x00000080   Code   RO          521    i.oled_show_num_every0  oled.o
    0x0800bcee   0x00000174   Code   RO          522    i.oled_show_num_hide0  oled.o
    0x0800be62   0x000001be   Code   RO          523    i.oled_show_string  oled.o
    0x0800c020   0x0000005c   Code   RO          524    i.oled_spi_init     oled.o
    0x0800c07c   0x0000039c   Code   RO          525    i.oled_ssd1351_init  oled.o
    0x0800c418   0x00000038   Code   RO          526    i.oled_write_Byte   oled.o
    0x0800c450   0x00000080   Code   RO         1179    i.pick_lfn          ff.o
    0x0800c4d0   0x00000142   Code   RO         1180    i.put_fat           ff.o
    0x0800c612   0x00000010   Code   RO         1626    i.rd_BigEnd16       fmt_jpeg.o
    0x0800c622   0x00000002   PAD
    0x0800c624   0x000000f8   Code   RO         1627    i.rd_SOF0_2get_size  fmt_jpeg.o
    0x0800c71c   0x000005f8   Code   RO         1628    i.rd_restore_HuffBit_RLE_Mat  fmt_jpeg.o
    0x0800cd14   0x0000008c   Code   RO         1629    i.rd_restore_InvQuantize  fmt_jpeg.o
    0x0800cda0   0x0000006c   Code   RO         1182    i.remove_chain      ff.o
    0x0800ce0c   0x0000003a   Code   RO         1677    i.rgb888_to_565     fmt_jpeg.o
    0x0800ce46   0x00000002   PAD
    0x0800ce48   0x00000044   Code   RO         1683    i.round_double      fmt_jpeg.o
    0x0800ce8c   0x0000007c   Code   RO          894    i.si24r1_TX_mode    si24r1.o
    0x0800cf08   0x0000008c   Code   RO          895    i.si24r1_TX_packet  si24r1.o
    0x0800cf94   0x0000004c   Code   RO          896    i.si24r1_detect     si24r1.o
    0x0800cfe0   0x00000038   Code   RO          897    i.si24r1_read_buf   si24r1.o
    0x0800d018   0x0000002c   Code   RO          898    i.si24r1_read_once  si24r1.o
    0x0800d044   0x0000007c   Code   RO          899    i.si24r1_spi_init   si24r1.o
    0x0800d0c0   0x00000038   Code   RO          900    i.si24r1_write_buf  si24r1.o
    0x0800d0f8   0x0000002c   Code   RO          901    i.si24r1_write_once  si24r1.o
    0x0800d124   0x00000010   Code   RO         1183    i.st_clust          ff.o
    0x0800d134   0x0000001c   Code   RO         1630    i.sum_arr           fmt_jpeg.o
    0x0800d150   0x00000020   Code   RO         1184    i.sum_sfn           ff.o
    0x0800d170   0x000000c8   Code   RO         1185    i.sync_fs           ff.o
    0x0800d238   0x00000052   Code   RO         1186    i.sync_window       ff.o
    0x0800d28a   0x00000032   Code   RO         1187    i.validate          ff.o
    0x0800d2bc   0x0000110e   Data   RO          528    .constdata          oled.o
    0x0800e3ca   0x0000000a   Data   RO          902    .constdata          si24r1.o
    0x0800e3d4   0x000000ba   Data   RO         1188    .constdata          ff.o
    0x0800e48e   0x000008b8   Data   RO         1548    .constdata          ccsbcs.o
    0x0800ed46   0x00000002   PAD
    0x0800ed48   0x00000480   Data   RO         1632    .constdata          fmt_jpeg.o
    0x0800f1c8   0x000000c6   Data   RO         2336    .constdata          usb_desc.o
    0x0800f28e   0x00000002   PAD
    0x0800f290   0x00000020   Data   RO         4785    Region$$Table       anon$$obj.o


    Execution Region RW_IRAM1 (Base: 0x20000000, Size: 0x0000b888, Max: 0x0000c000, ABSOLUTE, COMPRESSED[0x0000009c])

    Base Addr    Size         Type   Attr      Idx    E Section Name        Object

    0x20000000   0x0000001d   Data   RW            3    .data               main.o
    0x2000001d   0x00000003   PAD
    0x20000020   0x00000014   Data   RW          276    .data               system_stm32f10x.o
    0x20000034   0x00000008   Data   RW          314    .data               irqhandler.o
    0x2000003c   0x0000001c   Data   RW          705    .data               sdio_sdcard.o
    0x20000058   0x00000001   Data   RW          903    .data               si24r1.o
    0x20000059   0x00000003   PAD
    0x2000005c   0x00000006   Data   RW         1189    .data               ff.o
    0x20000062   0x00000002   PAD
    0x20000064   0x00000020   Data   RW         1470    .data               extfunc.o
    0x20000084   0x00000008   Data   RW         1633    .data               fmt_jpeg.o
    0x2000008c   0x00000003   Data   RW         1715    .data               usb_core.o
    0x2000008f   0x00000001   PAD
    0x20000090   0x00000014   Data   RW         1817    .data               usb_init.o
    0x200000a4   0x00000004   Data   RW         1840    .data               usb_int.o
    0x200000a8   0x00000001   Data   RW         2279    .data               hw_config.o
    0x200000a9   0x0000001a   Data   RW         2337    .data               usb_desc.o
    0x200000c3   0x00000001   PAD
    0x200000c4   0x00000044   Data   RW         2363    .data               usb_istr.o
    0x20000108   0x0000009c   Data   RW         2399    .data               usb_prop.o
    0x200001a4   0x0000000c   Data   RW         2502    .data               usb_pwr.o
    0x200001b0   0x00000004   Data   RW         2542    .data               delay.o
    0x200001b4   0x00000006   Data   RW         2600    .data               usart.o
    0x200001ba   0x00000002   PAD
    0x200001bc   0x00000004   Data   RW         4772    .data               mc_w.l(mvars.o)
    0x200001c0   0x00000004   Data   RW         4773    .data               mc_w.l(mvars.o)
    0x200001c4   0x00000132   Zero   RW            2    .bss                main.o
    0x200002f6   0x00000002   PAD
    0x200002f8   0x0000002c   Zero   RW          450    .bss                dma.o
    0x20000324   0x00000012   Zero   RW          474    .bss                spi.o
    0x20000336   0x00008000   Zero   RW          527    .bss                oled.o
    0x20008336   0x00000002   PAD
    0x20008338   0x0000009c   Zero   RW          704    .bss                sdio_sdcard.o
    0x200083d4   0x000017ac   Zero   RW         1468    .bss                extfunc.o
    0x20009b80   0x00000300   Zero   RW         1631    .bss                fmt_jpeg.o
    0x20009e80   0x0000001c   Zero   RW         1816    .bss                usb_init.o
    0x20009e9c   0x00000020   Zero   RW         2501    .bss                usb_pwr.o
    0x20009ebc   0x000000c8   Zero   RW         2599    .bss                usart.o
    0x20009f84   0x00000004   PAD
    0x20009f88   0x00000600   Zero   RW         2652    HEAP                startup_stm32f10x_hd.o
    0x2000a588   0x00001300   Zero   RW         2651    STACK               startup_stm32f10x_hd.o


==============================================================================

Image component sizes


      Code (inc. data)   RO Data    RW Data    ZI Data      Debug   Object Name

       904        104          0          0          0       1778   adc.o
       168         14       2232          0          0       2307   ccsbcs.o
       144         22          0          4          0       1176   delay.o
       534         24          0          0          0       5149   diskio.o
        84          4          0          0         44       1201   dma.o
      4716        748          0         32       6060      13249   extfunc.o
       162          0          0          0          0        584   exti.o
      8310         72        186          6          0      40779   ff.o
      9090        538       1152          8        768      16510   fmt_jpeg.o
       398         38          0          1          0       6018   hw_config.o
       444         70          0          8          0       3907   irqhandler.o
       108         10          0          0          0        499   key.o
        96          6          0          0          0        495   led.o
      4924        772          0         29        306     297945   main.o
       172         22          0          0          0       2025   misc.o
      3480         68       4366          0      32768      13668   oled.o
       258          0          0          0          0       1751   oled_mathpaint.o
      2108        266          0          0          0       4906   picturelib.o
      4616        310          0         28        156      22160   sdio_sdcard.o
       692         72         10          1          0       5974   si24r1.o
       412         40          0          0         18       2554   spi.o
        36          8        304          0       6400        788   startup_stm32f10x_hd.o
       482         24          0          0          0       7882   stm32f10x_adc.o
       488         26          0          0          0       4494   stm32f10x_dma.o
       200         18          0          0          0       2076   stm32f10x_exti.o
       368          4          0          0          0       4230   stm32f10x_gpio.o
        26          0          0          0          0       3646   stm32f10x_it.o
       164         36          0          0          0       3289   stm32f10x_rcc.o
       372         86          0          0          0       9579   stm32f10x_sdio.o
       112          0          0          0          0       3782   stm32f10x_spi.o
       246         42          0          0          0       3502   stm32f10x_tim.o
        94          0          0          0          0       2712   stm32f10x_usart.o
         0          0          0          0          0         32   sys.o
       328         28          0         20          0       2045   system_stm32f10x.o
        96          6          0          0          0        647   timer.o
       136         14          0          6        200       2408   usart.o
      3058        288          0          3          0      15007   usb_core.o
         0          0        198         26          0       1149   usb_desc.o
        12          4          0          0          0        478   usb_endp.o
        60         24          0         20         28       4206   usb_init.o
       648         32          0          4          0       1816   usb_int.o
       460         38          0         68          0       1747   usb_istr.o
        96         10          0          0          0       1860   usb_mem.o
       598        110          0        156          0      13240   usb_prop.o
       464         52          0         12         32       3920   usb_pwr.o
       676         90          0          0          0       9688   usb_regs.o
        82          8          0          0          0       1591   usb_sil.o

    ----------------------------------------------------------------------
     51166       4148       8484        444      46788     550449   Object Totals
         0          0         32          0          0          0   (incl. Generated)
        44          0          4         12          8          0   (incl. Padding)

    ----------------------------------------------------------------------

      Code (inc. data)   RO Data    RW Data    ZI Data      Debug   Library Member Name

        86          0          0          0          0          0   __dczerorl2.o
         0          0          0          0          0          0   entry.o
         0          0          0          0          0          0   entry10a.o
         0          0          0          0          0          0   entry11a.o
         8          4          0          0          0          0   entry2.o
         4          0          0          0          0          0   entry5.o
         0          0          0          0          0          0   entry7b.o
         0          0          0          0          0          0   entry8b.o
         8          4          0          0          0          0   entry9a.o
        30          0          0          0          0          0   handlers.o
        36          8          0          0          0         68   init.o
         0          0          0          0          0          0   iusefp.o
        30          0          0          0          0         68   llshl.o
        36          0          0          0          0         68   llsshr.o
        32          0          0          0          0         68   llushr.o
       188         20          0          0          0        160   malloc.o
        36          0          0          0          0         68   memcpya.o
        36          0          0          0          0        108   memseta.o
         0          0          0          8          0          0   mvars.o
       264          6          0          0          0        244   printf2.o
        14          0          0          0          0         68   strlen.o
        24          0          0          0          0         76   strncpy.o
        36          0          0          0          0         80   strstr.o
        98          0          0          0          0         92   uldiv.o
        48          0          0          0          0         68   cdcmple.o
        48          0          0          0          0         68   cdrcmple.o
        20          0          0          0          0         68   cfcmple.o
        56          0          0          0          0         88   d2f.o
       334          0          0          0          0        148   dadd.o
       186          0          0          0          0        176   depilogue.o
        62          0          0          0          0         80   dfixi.o
        50          0          0          0          0         76   dfixui.o
        34          0          0          0          0         76   dflti.o
       228          0          0          0          0         96   dmul.o
        38          0          0          0          0         68   f2d.o
       124          0          0          0          0         88   fdiv.o
       110          0          0          0          0        168   fepilogue.o
        40          0          0          0          0         68   ffixui.o
        18          0          0          0          0         68   fflti.o
        10          0          0          0          0         68   ffltui.o
       100          0          0          0          0         76   fmul.o

    ----------------------------------------------------------------------
      2478         42          0          8          0       2716   Library Totals
         6          0          0          0          0          0   (incl. Padding)

    ----------------------------------------------------------------------

      Code (inc. data)   RO Data    RW Data    ZI Data      Debug   Library Name

       966         42          0          8          0       1168   mc_w.l
      1506          0          0          0          0       1548   mf_w.l

    ----------------------------------------------------------------------
      2478         42          0          8          0       2716   Library Totals

    ----------------------------------------------------------------------

==============================================================================


      Code (inc. data)   RO Data    RW Data    ZI Data      Debug   

     53644       4190       8484        452      46788     536861   Grand Totals
     53644       4190       8484        156      46788     536861   ELF Image Totals (compressed)
     53644       4190       8484        156          0          0   ROM Totals

==============================================================================

    Total RO  Size (Code + RO Data)                62128 (  60.67kB)
    Total RW  Size (RW Data + ZI Data)             47240 (  46.13kB)
    Total ROM Size (Code + RO Data + RW Data)      62284 (  60.82kB)

==============================================================================

